ARM GAS  C:\Users\User\AppData\Local\Temp\cc8N179E.s 			page 1


   1              		.cpu cortex-m4
   2              		.arch armv7e-m
   3              		.fpu fpv4-sp-d16
   4              		.eabi_attribute 27, 1
   5              		.eabi_attribute 28, 1
   6              		.eabi_attribute 20, 1
   7              		.eabi_attribute 21, 1
   8              		.eabi_attribute 23, 3
   9              		.eabi_attribute 24, 1
  10              		.eabi_attribute 25, 1
  11              		.eabi_attribute 26, 1
  12              		.eabi_attribute 30, 1
  13              		.eabi_attribute 34, 1
  14              		.eabi_attribute 18, 4
  15              		.file	"usbd_core.c"
  16              		.text
  17              	.Ltext0:
  18              		.cfi_sections	.debug_frame
  19              		.file 1 "Middlewares/ST/STM32_USB_Device_Library/Core/Src/usbd_core.c"
  20              		.section	.text.USBD_Init,"ax",%progbits
  21              		.align	1
  22              		.global	USBD_Init
  23              		.syntax unified
  24              		.thumb
  25              		.thumb_func
  27              	USBD_Init:
  28              	.LVL0:
  29              	.LFB134:
   1:Middlewares/ST/STM32_USB_Device_Library/Core/Src/usbd_core.c **** /**
   2:Middlewares/ST/STM32_USB_Device_Library/Core/Src/usbd_core.c ****   ******************************************************************************
   3:Middlewares/ST/STM32_USB_Device_Library/Core/Src/usbd_core.c ****   * @file    usbd_core.c
   4:Middlewares/ST/STM32_USB_Device_Library/Core/Src/usbd_core.c ****   * @author  MCD Application Team
   5:Middlewares/ST/STM32_USB_Device_Library/Core/Src/usbd_core.c ****   * @brief   This file provides all the USBD core functions.
   6:Middlewares/ST/STM32_USB_Device_Library/Core/Src/usbd_core.c ****   ******************************************************************************
   7:Middlewares/ST/STM32_USB_Device_Library/Core/Src/usbd_core.c ****   * @attention
   8:Middlewares/ST/STM32_USB_Device_Library/Core/Src/usbd_core.c ****   *
   9:Middlewares/ST/STM32_USB_Device_Library/Core/Src/usbd_core.c ****   * Copyright (c) 2015 STMicroelectronics.
  10:Middlewares/ST/STM32_USB_Device_Library/Core/Src/usbd_core.c ****   * All rights reserved.
  11:Middlewares/ST/STM32_USB_Device_Library/Core/Src/usbd_core.c ****   *
  12:Middlewares/ST/STM32_USB_Device_Library/Core/Src/usbd_core.c ****   * This software is licensed under terms that can be found in the LICENSE file
  13:Middlewares/ST/STM32_USB_Device_Library/Core/Src/usbd_core.c ****   * in the root directory of this software component.
  14:Middlewares/ST/STM32_USB_Device_Library/Core/Src/usbd_core.c ****   * If no LICENSE file comes with this software, it is provided AS-IS.
  15:Middlewares/ST/STM32_USB_Device_Library/Core/Src/usbd_core.c ****   *
  16:Middlewares/ST/STM32_USB_Device_Library/Core/Src/usbd_core.c ****   ******************************************************************************
  17:Middlewares/ST/STM32_USB_Device_Library/Core/Src/usbd_core.c ****   */
  18:Middlewares/ST/STM32_USB_Device_Library/Core/Src/usbd_core.c **** 
  19:Middlewares/ST/STM32_USB_Device_Library/Core/Src/usbd_core.c **** /* Includes ------------------------------------------------------------------*/
  20:Middlewares/ST/STM32_USB_Device_Library/Core/Src/usbd_core.c **** #include "usbd_core.h"
  21:Middlewares/ST/STM32_USB_Device_Library/Core/Src/usbd_core.c **** 
  22:Middlewares/ST/STM32_USB_Device_Library/Core/Src/usbd_core.c **** #ifdef USE_USBD_COMPOSITE
  23:Middlewares/ST/STM32_USB_Device_Library/Core/Src/usbd_core.c **** #include "usbd_composite_builder.h"
  24:Middlewares/ST/STM32_USB_Device_Library/Core/Src/usbd_core.c **** #endif /* USE_USBD_COMPOSITE */
  25:Middlewares/ST/STM32_USB_Device_Library/Core/Src/usbd_core.c **** 
  26:Middlewares/ST/STM32_USB_Device_Library/Core/Src/usbd_core.c **** /** @addtogroup STM32_USBD_DEVICE_LIBRARY
  27:Middlewares/ST/STM32_USB_Device_Library/Core/Src/usbd_core.c ****   * @{
  28:Middlewares/ST/STM32_USB_Device_Library/Core/Src/usbd_core.c ****   */
  29:Middlewares/ST/STM32_USB_Device_Library/Core/Src/usbd_core.c **** 
ARM GAS  C:\Users\User\AppData\Local\Temp\cc8N179E.s 			page 2


  30:Middlewares/ST/STM32_USB_Device_Library/Core/Src/usbd_core.c **** 
  31:Middlewares/ST/STM32_USB_Device_Library/Core/Src/usbd_core.c **** /** @defgroup USBD_CORE
  32:Middlewares/ST/STM32_USB_Device_Library/Core/Src/usbd_core.c ****   * @brief usbd core module
  33:Middlewares/ST/STM32_USB_Device_Library/Core/Src/usbd_core.c ****   * @{
  34:Middlewares/ST/STM32_USB_Device_Library/Core/Src/usbd_core.c ****   */
  35:Middlewares/ST/STM32_USB_Device_Library/Core/Src/usbd_core.c **** 
  36:Middlewares/ST/STM32_USB_Device_Library/Core/Src/usbd_core.c **** /** @defgroup USBD_CORE_Private_TypesDefinitions
  37:Middlewares/ST/STM32_USB_Device_Library/Core/Src/usbd_core.c ****   * @{
  38:Middlewares/ST/STM32_USB_Device_Library/Core/Src/usbd_core.c ****   */
  39:Middlewares/ST/STM32_USB_Device_Library/Core/Src/usbd_core.c **** 
  40:Middlewares/ST/STM32_USB_Device_Library/Core/Src/usbd_core.c **** /**
  41:Middlewares/ST/STM32_USB_Device_Library/Core/Src/usbd_core.c ****   * @}
  42:Middlewares/ST/STM32_USB_Device_Library/Core/Src/usbd_core.c ****   */
  43:Middlewares/ST/STM32_USB_Device_Library/Core/Src/usbd_core.c **** 
  44:Middlewares/ST/STM32_USB_Device_Library/Core/Src/usbd_core.c **** 
  45:Middlewares/ST/STM32_USB_Device_Library/Core/Src/usbd_core.c **** /** @defgroup USBD_CORE_Private_Defines
  46:Middlewares/ST/STM32_USB_Device_Library/Core/Src/usbd_core.c ****   * @{
  47:Middlewares/ST/STM32_USB_Device_Library/Core/Src/usbd_core.c ****   */
  48:Middlewares/ST/STM32_USB_Device_Library/Core/Src/usbd_core.c **** 
  49:Middlewares/ST/STM32_USB_Device_Library/Core/Src/usbd_core.c **** /**
  50:Middlewares/ST/STM32_USB_Device_Library/Core/Src/usbd_core.c ****   * @}
  51:Middlewares/ST/STM32_USB_Device_Library/Core/Src/usbd_core.c ****   */
  52:Middlewares/ST/STM32_USB_Device_Library/Core/Src/usbd_core.c **** 
  53:Middlewares/ST/STM32_USB_Device_Library/Core/Src/usbd_core.c **** 
  54:Middlewares/ST/STM32_USB_Device_Library/Core/Src/usbd_core.c **** /** @defgroup USBD_CORE_Private_Macros
  55:Middlewares/ST/STM32_USB_Device_Library/Core/Src/usbd_core.c ****   * @{
  56:Middlewares/ST/STM32_USB_Device_Library/Core/Src/usbd_core.c ****   */
  57:Middlewares/ST/STM32_USB_Device_Library/Core/Src/usbd_core.c **** 
  58:Middlewares/ST/STM32_USB_Device_Library/Core/Src/usbd_core.c **** /**
  59:Middlewares/ST/STM32_USB_Device_Library/Core/Src/usbd_core.c ****   * @}
  60:Middlewares/ST/STM32_USB_Device_Library/Core/Src/usbd_core.c ****   */
  61:Middlewares/ST/STM32_USB_Device_Library/Core/Src/usbd_core.c **** 
  62:Middlewares/ST/STM32_USB_Device_Library/Core/Src/usbd_core.c **** 
  63:Middlewares/ST/STM32_USB_Device_Library/Core/Src/usbd_core.c **** /** @defgroup USBD_CORE_Private_FunctionPrototypes
  64:Middlewares/ST/STM32_USB_Device_Library/Core/Src/usbd_core.c ****   * @{
  65:Middlewares/ST/STM32_USB_Device_Library/Core/Src/usbd_core.c ****   */
  66:Middlewares/ST/STM32_USB_Device_Library/Core/Src/usbd_core.c **** 
  67:Middlewares/ST/STM32_USB_Device_Library/Core/Src/usbd_core.c **** /**
  68:Middlewares/ST/STM32_USB_Device_Library/Core/Src/usbd_core.c ****   * @}
  69:Middlewares/ST/STM32_USB_Device_Library/Core/Src/usbd_core.c ****   */
  70:Middlewares/ST/STM32_USB_Device_Library/Core/Src/usbd_core.c **** 
  71:Middlewares/ST/STM32_USB_Device_Library/Core/Src/usbd_core.c **** /** @defgroup USBD_CORE_Private_Variables
  72:Middlewares/ST/STM32_USB_Device_Library/Core/Src/usbd_core.c ****   * @{
  73:Middlewares/ST/STM32_USB_Device_Library/Core/Src/usbd_core.c ****   */
  74:Middlewares/ST/STM32_USB_Device_Library/Core/Src/usbd_core.c **** 
  75:Middlewares/ST/STM32_USB_Device_Library/Core/Src/usbd_core.c **** /**
  76:Middlewares/ST/STM32_USB_Device_Library/Core/Src/usbd_core.c ****   * @}
  77:Middlewares/ST/STM32_USB_Device_Library/Core/Src/usbd_core.c ****   */
  78:Middlewares/ST/STM32_USB_Device_Library/Core/Src/usbd_core.c **** 
  79:Middlewares/ST/STM32_USB_Device_Library/Core/Src/usbd_core.c **** 
  80:Middlewares/ST/STM32_USB_Device_Library/Core/Src/usbd_core.c **** /** @defgroup USBD_CORE_Private_Functions
  81:Middlewares/ST/STM32_USB_Device_Library/Core/Src/usbd_core.c ****   * @{
  82:Middlewares/ST/STM32_USB_Device_Library/Core/Src/usbd_core.c ****   */
  83:Middlewares/ST/STM32_USB_Device_Library/Core/Src/usbd_core.c **** 
  84:Middlewares/ST/STM32_USB_Device_Library/Core/Src/usbd_core.c **** /**
  85:Middlewares/ST/STM32_USB_Device_Library/Core/Src/usbd_core.c ****   * @brief  USBD_Init
  86:Middlewares/ST/STM32_USB_Device_Library/Core/Src/usbd_core.c ****   *         Initializes the device stack and load the class driver
ARM GAS  C:\Users\User\AppData\Local\Temp\cc8N179E.s 			page 3


  87:Middlewares/ST/STM32_USB_Device_Library/Core/Src/usbd_core.c ****   * @param  pdev: device instance
  88:Middlewares/ST/STM32_USB_Device_Library/Core/Src/usbd_core.c ****   * @param  pdesc: Descriptor structure address
  89:Middlewares/ST/STM32_USB_Device_Library/Core/Src/usbd_core.c ****   * @param  id: Low level core index
  90:Middlewares/ST/STM32_USB_Device_Library/Core/Src/usbd_core.c ****   * @retval None
  91:Middlewares/ST/STM32_USB_Device_Library/Core/Src/usbd_core.c ****   */
  92:Middlewares/ST/STM32_USB_Device_Library/Core/Src/usbd_core.c **** USBD_StatusTypeDef USBD_Init(USBD_HandleTypeDef *pdev,
  93:Middlewares/ST/STM32_USB_Device_Library/Core/Src/usbd_core.c ****                              USBD_DescriptorsTypeDef *pdesc, uint8_t id)
  94:Middlewares/ST/STM32_USB_Device_Library/Core/Src/usbd_core.c **** {
  30              		.loc 1 94 1 view -0
  31              		.cfi_startproc
  32              		@ args = 0, pretend = 0, frame = 0
  33              		@ frame_needed = 0, uses_anonymous_args = 0
  95:Middlewares/ST/STM32_USB_Device_Library/Core/Src/usbd_core.c ****   USBD_StatusTypeDef ret;
  34              		.loc 1 95 3 view .LVU1
  96:Middlewares/ST/STM32_USB_Device_Library/Core/Src/usbd_core.c **** 
  97:Middlewares/ST/STM32_USB_Device_Library/Core/Src/usbd_core.c ****   /* Check whether the USB Host handle is valid */
  98:Middlewares/ST/STM32_USB_Device_Library/Core/Src/usbd_core.c ****   if (pdev == NULL)
  35              		.loc 1 98 3 view .LVU2
  36              		.loc 1 98 6 is_stmt 0 view .LVU3
  37 0000 98B1     		cbz	r0, .L4
  94:Middlewares/ST/STM32_USB_Device_Library/Core/Src/usbd_core.c ****   USBD_StatusTypeDef ret;
  38              		.loc 1 94 1 view .LVU4
  39 0002 08B5     		push	{r3, lr}
  40              		.cfi_def_cfa_offset 8
  41              		.cfi_offset 3, -8
  42              		.cfi_offset 14, -4
  43 0004 0346     		mov	r3, r0
  99:Middlewares/ST/STM32_USB_Device_Library/Core/Src/usbd_core.c ****   {
 100:Middlewares/ST/STM32_USB_Device_Library/Core/Src/usbd_core.c **** #if (USBD_DEBUG_LEVEL > 1U)
 101:Middlewares/ST/STM32_USB_Device_Library/Core/Src/usbd_core.c ****     USBD_ErrLog("Invalid Device handle");
 102:Middlewares/ST/STM32_USB_Device_Library/Core/Src/usbd_core.c **** #endif /* (USBD_DEBUG_LEVEL > 1U) */
 103:Middlewares/ST/STM32_USB_Device_Library/Core/Src/usbd_core.c ****     return USBD_FAIL;
 104:Middlewares/ST/STM32_USB_Device_Library/Core/Src/usbd_core.c ****   }
 105:Middlewares/ST/STM32_USB_Device_Library/Core/Src/usbd_core.c **** 
 106:Middlewares/ST/STM32_USB_Device_Library/Core/Src/usbd_core.c **** #ifdef USE_USBD_COMPOSITE
 107:Middlewares/ST/STM32_USB_Device_Library/Core/Src/usbd_core.c ****   /* Parse the table of classes in use */
 108:Middlewares/ST/STM32_USB_Device_Library/Core/Src/usbd_core.c ****   for (uint32_t i = 0; i < USBD_MAX_SUPPORTED_CLASS; i++)
 109:Middlewares/ST/STM32_USB_Device_Library/Core/Src/usbd_core.c ****   {
 110:Middlewares/ST/STM32_USB_Device_Library/Core/Src/usbd_core.c ****     /* Unlink previous class*/
 111:Middlewares/ST/STM32_USB_Device_Library/Core/Src/usbd_core.c ****     pdev->pClass[i] = NULL;
 112:Middlewares/ST/STM32_USB_Device_Library/Core/Src/usbd_core.c ****     pdev->pUserData[i] = NULL;
 113:Middlewares/ST/STM32_USB_Device_Library/Core/Src/usbd_core.c **** 
 114:Middlewares/ST/STM32_USB_Device_Library/Core/Src/usbd_core.c ****     /* Set class as inactive */
 115:Middlewares/ST/STM32_USB_Device_Library/Core/Src/usbd_core.c ****     pdev->tclasslist[i].Active = 0;
 116:Middlewares/ST/STM32_USB_Device_Library/Core/Src/usbd_core.c ****     pdev->NumClasses = 0;
 117:Middlewares/ST/STM32_USB_Device_Library/Core/Src/usbd_core.c ****     pdev->classId = 0;
 118:Middlewares/ST/STM32_USB_Device_Library/Core/Src/usbd_core.c ****   }
 119:Middlewares/ST/STM32_USB_Device_Library/Core/Src/usbd_core.c **** #else
 120:Middlewares/ST/STM32_USB_Device_Library/Core/Src/usbd_core.c ****   /* Unlink previous class*/
 121:Middlewares/ST/STM32_USB_Device_Library/Core/Src/usbd_core.c ****   pdev->pClass[0] = NULL;
  44              		.loc 1 121 3 is_stmt 1 view .LVU5
  45              		.loc 1 121 19 is_stmt 0 view .LVU6
  46 0006 0020     		movs	r0, #0
  47              	.LVL1:
  48              		.loc 1 121 19 view .LVU7
  49 0008 C3F8B802 		str	r0, [r3, #696]
 122:Middlewares/ST/STM32_USB_Device_Library/Core/Src/usbd_core.c ****   pdev->pUserData[0] = NULL;
ARM GAS  C:\Users\User\AppData\Local\Temp\cc8N179E.s 			page 4


  50              		.loc 1 122 3 is_stmt 1 view .LVU8
  51              		.loc 1 122 22 is_stmt 0 view .LVU9
  52 000c C3F8C402 		str	r0, [r3, #708]
 123:Middlewares/ST/STM32_USB_Device_Library/Core/Src/usbd_core.c **** #endif /* USE_USBD_COMPOSITE */
 124:Middlewares/ST/STM32_USB_Device_Library/Core/Src/usbd_core.c **** 
 125:Middlewares/ST/STM32_USB_Device_Library/Core/Src/usbd_core.c ****   pdev->pConfDesc = NULL;
  53              		.loc 1 125 3 is_stmt 1 view .LVU10
  54              		.loc 1 125 19 is_stmt 0 view .LVU11
  55 0010 C3F8D002 		str	r0, [r3, #720]
 126:Middlewares/ST/STM32_USB_Device_Library/Core/Src/usbd_core.c **** 
 127:Middlewares/ST/STM32_USB_Device_Library/Core/Src/usbd_core.c ****   /* Assign USBD Descriptors */
 128:Middlewares/ST/STM32_USB_Device_Library/Core/Src/usbd_core.c ****   if (pdesc != NULL)
  56              		.loc 1 128 3 is_stmt 1 view .LVU12
  57              		.loc 1 128 6 is_stmt 0 view .LVU13
  58 0014 09B1     		cbz	r1, .L3
 129:Middlewares/ST/STM32_USB_Device_Library/Core/Src/usbd_core.c ****   {
 130:Middlewares/ST/STM32_USB_Device_Library/Core/Src/usbd_core.c ****     pdev->pDesc = pdesc;
  59              		.loc 1 130 5 is_stmt 1 view .LVU14
  60              		.loc 1 130 17 is_stmt 0 view .LVU15
  61 0016 C3F8B412 		str	r1, [r3, #692]
  62              	.L3:
 131:Middlewares/ST/STM32_USB_Device_Library/Core/Src/usbd_core.c ****   }
 132:Middlewares/ST/STM32_USB_Device_Library/Core/Src/usbd_core.c **** 
 133:Middlewares/ST/STM32_USB_Device_Library/Core/Src/usbd_core.c ****   /* Set Device initial State */
 134:Middlewares/ST/STM32_USB_Device_Library/Core/Src/usbd_core.c ****   pdev->dev_state = USBD_STATE_DEFAULT;
  63              		.loc 1 134 3 is_stmt 1 view .LVU16
  64              		.loc 1 134 19 is_stmt 0 view .LVU17
  65 001a 0121     		movs	r1, #1
  66              	.LVL2:
  67              		.loc 1 134 19 view .LVU18
  68 001c 83F89C12 		strb	r1, [r3, #668]
 135:Middlewares/ST/STM32_USB_Device_Library/Core/Src/usbd_core.c ****   pdev->id = id;
  69              		.loc 1 135 3 is_stmt 1 view .LVU19
  70              		.loc 1 135 12 is_stmt 0 view .LVU20
  71 0020 1A70     		strb	r2, [r3]
 136:Middlewares/ST/STM32_USB_Device_Library/Core/Src/usbd_core.c **** 
 137:Middlewares/ST/STM32_USB_Device_Library/Core/Src/usbd_core.c ****   /* Initialize low level driver */
 138:Middlewares/ST/STM32_USB_Device_Library/Core/Src/usbd_core.c ****   ret = USBD_LL_Init(pdev);
  72              		.loc 1 138 3 is_stmt 1 view .LVU21
  73              		.loc 1 138 9 is_stmt 0 view .LVU22
  74 0022 1846     		mov	r0, r3
  75 0024 FFF7FEFF 		bl	USBD_LL_Init
  76              	.LVL3:
 139:Middlewares/ST/STM32_USB_Device_Library/Core/Src/usbd_core.c **** 
 140:Middlewares/ST/STM32_USB_Device_Library/Core/Src/usbd_core.c ****   return ret;
  77              		.loc 1 140 3 is_stmt 1 view .LVU23
 141:Middlewares/ST/STM32_USB_Device_Library/Core/Src/usbd_core.c **** }
  78              		.loc 1 141 1 is_stmt 0 view .LVU24
  79 0028 08BD     		pop	{r3, pc}
  80              	.LVL4:
  81              	.L4:
  82              		.cfi_def_cfa_offset 0
  83              		.cfi_restore 3
  84              		.cfi_restore 14
 103:Middlewares/ST/STM32_USB_Device_Library/Core/Src/usbd_core.c ****   }
  85              		.loc 1 103 12 view .LVU25
  86 002a 0320     		movs	r0, #3
ARM GAS  C:\Users\User\AppData\Local\Temp\cc8N179E.s 			page 5


  87              	.LVL5:
  88              		.loc 1 141 1 view .LVU26
  89 002c 7047     		bx	lr
  90              		.cfi_endproc
  91              	.LFE134:
  93              		.section	.text.USBD_DeInit,"ax",%progbits
  94              		.align	1
  95              		.global	USBD_DeInit
  96              		.syntax unified
  97              		.thumb
  98              		.thumb_func
 100              	USBD_DeInit:
 101              	.LVL6:
 102              	.LFB135:
 142:Middlewares/ST/STM32_USB_Device_Library/Core/Src/usbd_core.c **** 
 143:Middlewares/ST/STM32_USB_Device_Library/Core/Src/usbd_core.c **** /**
 144:Middlewares/ST/STM32_USB_Device_Library/Core/Src/usbd_core.c ****   * @brief  USBD_DeInit
 145:Middlewares/ST/STM32_USB_Device_Library/Core/Src/usbd_core.c ****   *         Re-Initialize the device library
 146:Middlewares/ST/STM32_USB_Device_Library/Core/Src/usbd_core.c ****   * @param  pdev: device instance
 147:Middlewares/ST/STM32_USB_Device_Library/Core/Src/usbd_core.c ****   * @retval status: status
 148:Middlewares/ST/STM32_USB_Device_Library/Core/Src/usbd_core.c ****   */
 149:Middlewares/ST/STM32_USB_Device_Library/Core/Src/usbd_core.c **** USBD_StatusTypeDef USBD_DeInit(USBD_HandleTypeDef *pdev)
 150:Middlewares/ST/STM32_USB_Device_Library/Core/Src/usbd_core.c **** {
 103              		.loc 1 150 1 is_stmt 1 view -0
 104              		.cfi_startproc
 105              		@ args = 0, pretend = 0, frame = 0
 106              		@ frame_needed = 0, uses_anonymous_args = 0
 107              		.loc 1 150 1 is_stmt 0 view .LVU28
 108 0000 10B5     		push	{r4, lr}
 109              		.cfi_def_cfa_offset 8
 110              		.cfi_offset 4, -8
 111              		.cfi_offset 14, -4
 112 0002 0446     		mov	r4, r0
 151:Middlewares/ST/STM32_USB_Device_Library/Core/Src/usbd_core.c ****   USBD_StatusTypeDef ret;
 113              		.loc 1 151 3 is_stmt 1 view .LVU29
 152:Middlewares/ST/STM32_USB_Device_Library/Core/Src/usbd_core.c **** 
 153:Middlewares/ST/STM32_USB_Device_Library/Core/Src/usbd_core.c ****   /* Disconnect the USB Device */
 154:Middlewares/ST/STM32_USB_Device_Library/Core/Src/usbd_core.c ****   (void)USBD_LL_Stop(pdev);
 114              		.loc 1 154 3 view .LVU30
 115              		.loc 1 154 9 is_stmt 0 view .LVU31
 116 0004 FFF7FEFF 		bl	USBD_LL_Stop
 117              	.LVL7:
 155:Middlewares/ST/STM32_USB_Device_Library/Core/Src/usbd_core.c **** 
 156:Middlewares/ST/STM32_USB_Device_Library/Core/Src/usbd_core.c ****   /* Set Default State */
 157:Middlewares/ST/STM32_USB_Device_Library/Core/Src/usbd_core.c ****   pdev->dev_state = USBD_STATE_DEFAULT;
 118              		.loc 1 157 3 is_stmt 1 view .LVU32
 119              		.loc 1 157 19 is_stmt 0 view .LVU33
 120 0008 0123     		movs	r3, #1
 121 000a 84F89C32 		strb	r3, [r4, #668]
 158:Middlewares/ST/STM32_USB_Device_Library/Core/Src/usbd_core.c **** 
 159:Middlewares/ST/STM32_USB_Device_Library/Core/Src/usbd_core.c **** #ifdef USE_USBD_COMPOSITE
 160:Middlewares/ST/STM32_USB_Device_Library/Core/Src/usbd_core.c ****   /* Parse the table of classes in use */
 161:Middlewares/ST/STM32_USB_Device_Library/Core/Src/usbd_core.c ****   for (uint32_t i = 0; i < USBD_MAX_SUPPORTED_CLASS; i++)
 162:Middlewares/ST/STM32_USB_Device_Library/Core/Src/usbd_core.c ****   {
 163:Middlewares/ST/STM32_USB_Device_Library/Core/Src/usbd_core.c ****     /* Check if current class is in use */
 164:Middlewares/ST/STM32_USB_Device_Library/Core/Src/usbd_core.c ****     if ((pdev->tclasslist[i].Active) == 1U)
 165:Middlewares/ST/STM32_USB_Device_Library/Core/Src/usbd_core.c ****     {
ARM GAS  C:\Users\User\AppData\Local\Temp\cc8N179E.s 			page 6


 166:Middlewares/ST/STM32_USB_Device_Library/Core/Src/usbd_core.c ****       if (pdev->pClass[i] != NULL)
 167:Middlewares/ST/STM32_USB_Device_Library/Core/Src/usbd_core.c ****       {
 168:Middlewares/ST/STM32_USB_Device_Library/Core/Src/usbd_core.c ****         pdev->classId = i;
 169:Middlewares/ST/STM32_USB_Device_Library/Core/Src/usbd_core.c ****         /* Free Class Resources */
 170:Middlewares/ST/STM32_USB_Device_Library/Core/Src/usbd_core.c ****         pdev->pClass[i]->DeInit(pdev, (uint8_t)pdev->dev_config);
 171:Middlewares/ST/STM32_USB_Device_Library/Core/Src/usbd_core.c ****       }
 172:Middlewares/ST/STM32_USB_Device_Library/Core/Src/usbd_core.c ****     }
 173:Middlewares/ST/STM32_USB_Device_Library/Core/Src/usbd_core.c ****   }
 174:Middlewares/ST/STM32_USB_Device_Library/Core/Src/usbd_core.c **** #else
 175:Middlewares/ST/STM32_USB_Device_Library/Core/Src/usbd_core.c ****   /* Free Class Resources */
 176:Middlewares/ST/STM32_USB_Device_Library/Core/Src/usbd_core.c ****   if (pdev->pClass[0] != NULL)
 122              		.loc 1 176 3 is_stmt 1 view .LVU34
 123              		.loc 1 176 19 is_stmt 0 view .LVU35
 124 000e D4F8B832 		ldr	r3, [r4, #696]
 125              		.loc 1 176 6 view .LVU36
 126 0012 1BB1     		cbz	r3, .L10
 177:Middlewares/ST/STM32_USB_Device_Library/Core/Src/usbd_core.c ****   {
 178:Middlewares/ST/STM32_USB_Device_Library/Core/Src/usbd_core.c ****     pdev->pClass[0]->DeInit(pdev, (uint8_t)pdev->dev_config);
 127              		.loc 1 178 5 is_stmt 1 view .LVU37
 128              		.loc 1 178 20 is_stmt 0 view .LVU38
 129 0014 5B68     		ldr	r3, [r3, #4]
 130              		.loc 1 178 5 view .LVU39
 131 0016 2179     		ldrb	r1, [r4, #4]	@ zero_extendqisi2
 132 0018 2046     		mov	r0, r4
 133 001a 9847     		blx	r3
 134              	.LVL8:
 135              	.L10:
 179:Middlewares/ST/STM32_USB_Device_Library/Core/Src/usbd_core.c ****   }
 180:Middlewares/ST/STM32_USB_Device_Library/Core/Src/usbd_core.c **** 
 181:Middlewares/ST/STM32_USB_Device_Library/Core/Src/usbd_core.c ****   pdev->pUserData[0] = NULL;
 136              		.loc 1 181 3 is_stmt 1 view .LVU40
 137              		.loc 1 181 22 is_stmt 0 view .LVU41
 138 001c 0023     		movs	r3, #0
 139 001e C4F8C432 		str	r3, [r4, #708]
 182:Middlewares/ST/STM32_USB_Device_Library/Core/Src/usbd_core.c **** 
 183:Middlewares/ST/STM32_USB_Device_Library/Core/Src/usbd_core.c **** #endif /* USE_USBD_COMPOSITE */
 184:Middlewares/ST/STM32_USB_Device_Library/Core/Src/usbd_core.c **** 
 185:Middlewares/ST/STM32_USB_Device_Library/Core/Src/usbd_core.c ****   /* Free Device descriptors resources */
 186:Middlewares/ST/STM32_USB_Device_Library/Core/Src/usbd_core.c ****   pdev->pDesc = NULL;
 140              		.loc 1 186 3 is_stmt 1 view .LVU42
 141              		.loc 1 186 15 is_stmt 0 view .LVU43
 142 0022 C4F8B432 		str	r3, [r4, #692]
 187:Middlewares/ST/STM32_USB_Device_Library/Core/Src/usbd_core.c ****   pdev->pConfDesc = NULL;
 143              		.loc 1 187 3 is_stmt 1 view .LVU44
 144              		.loc 1 187 19 is_stmt 0 view .LVU45
 145 0026 C4F8D032 		str	r3, [r4, #720]
 188:Middlewares/ST/STM32_USB_Device_Library/Core/Src/usbd_core.c **** 
 189:Middlewares/ST/STM32_USB_Device_Library/Core/Src/usbd_core.c ****   /* DeInitialize low level driver */
 190:Middlewares/ST/STM32_USB_Device_Library/Core/Src/usbd_core.c ****   ret = USBD_LL_DeInit(pdev);
 146              		.loc 1 190 3 is_stmt 1 view .LVU46
 147              		.loc 1 190 9 is_stmt 0 view .LVU47
 148 002a 2046     		mov	r0, r4
 149 002c FFF7FEFF 		bl	USBD_LL_DeInit
 150              	.LVL9:
 191:Middlewares/ST/STM32_USB_Device_Library/Core/Src/usbd_core.c **** 
 192:Middlewares/ST/STM32_USB_Device_Library/Core/Src/usbd_core.c ****   return ret;
 151              		.loc 1 192 3 is_stmt 1 view .LVU48
ARM GAS  C:\Users\User\AppData\Local\Temp\cc8N179E.s 			page 7


 193:Middlewares/ST/STM32_USB_Device_Library/Core/Src/usbd_core.c **** }
 152              		.loc 1 193 1 is_stmt 0 view .LVU49
 153 0030 10BD     		pop	{r4, pc}
 154              		.loc 1 193 1 view .LVU50
 155              		.cfi_endproc
 156              	.LFE135:
 158              		.section	.text.USBD_RegisterClass,"ax",%progbits
 159              		.align	1
 160              		.global	USBD_RegisterClass
 161              		.syntax unified
 162              		.thumb
 163              		.thumb_func
 165              	USBD_RegisterClass:
 166              	.LVL10:
 167              	.LFB136:
 194:Middlewares/ST/STM32_USB_Device_Library/Core/Src/usbd_core.c **** 
 195:Middlewares/ST/STM32_USB_Device_Library/Core/Src/usbd_core.c **** /**
 196:Middlewares/ST/STM32_USB_Device_Library/Core/Src/usbd_core.c ****   * @brief  USBD_RegisterClass
 197:Middlewares/ST/STM32_USB_Device_Library/Core/Src/usbd_core.c ****   *         Link class driver to Device Core.
 198:Middlewares/ST/STM32_USB_Device_Library/Core/Src/usbd_core.c ****   * @param  pDevice : Device Handle
 199:Middlewares/ST/STM32_USB_Device_Library/Core/Src/usbd_core.c ****   * @param  pclass: Class handle
 200:Middlewares/ST/STM32_USB_Device_Library/Core/Src/usbd_core.c ****   * @retval USBD Status
 201:Middlewares/ST/STM32_USB_Device_Library/Core/Src/usbd_core.c ****   */
 202:Middlewares/ST/STM32_USB_Device_Library/Core/Src/usbd_core.c **** USBD_StatusTypeDef USBD_RegisterClass(USBD_HandleTypeDef *pdev, USBD_ClassTypeDef *pclass)
 203:Middlewares/ST/STM32_USB_Device_Library/Core/Src/usbd_core.c **** {
 168              		.loc 1 203 1 is_stmt 1 view -0
 169              		.cfi_startproc
 170              		@ args = 0, pretend = 0, frame = 8
 171              		@ frame_needed = 0, uses_anonymous_args = 0
 172              		.loc 1 203 1 is_stmt 0 view .LVU52
 173 0000 10B5     		push	{r4, lr}
 174              		.cfi_def_cfa_offset 8
 175              		.cfi_offset 4, -8
 176              		.cfi_offset 14, -4
 177 0002 82B0     		sub	sp, sp, #8
 178              		.cfi_def_cfa_offset 16
 204:Middlewares/ST/STM32_USB_Device_Library/Core/Src/usbd_core.c ****   uint16_t len = 0U;
 179              		.loc 1 204 3 is_stmt 1 view .LVU53
 180              		.loc 1 204 12 is_stmt 0 view .LVU54
 181 0004 0023     		movs	r3, #0
 182 0006 ADF80630 		strh	r3, [sp, #6]	@ movhi
 205:Middlewares/ST/STM32_USB_Device_Library/Core/Src/usbd_core.c **** 
 206:Middlewares/ST/STM32_USB_Device_Library/Core/Src/usbd_core.c ****   if (pclass == NULL)
 183              		.loc 1 206 3 is_stmt 1 view .LVU55
 184              		.loc 1 206 6 is_stmt 0 view .LVU56
 185 000a 89B1     		cbz	r1, .L15
 186 000c 0446     		mov	r4, r0
 207:Middlewares/ST/STM32_USB_Device_Library/Core/Src/usbd_core.c ****   {
 208:Middlewares/ST/STM32_USB_Device_Library/Core/Src/usbd_core.c **** #if (USBD_DEBUG_LEVEL > 1U)
 209:Middlewares/ST/STM32_USB_Device_Library/Core/Src/usbd_core.c ****     USBD_ErrLog("Invalid Class handle");
 210:Middlewares/ST/STM32_USB_Device_Library/Core/Src/usbd_core.c **** #endif /* (USBD_DEBUG_LEVEL > 1U) */
 211:Middlewares/ST/STM32_USB_Device_Library/Core/Src/usbd_core.c ****     return USBD_FAIL;
 212:Middlewares/ST/STM32_USB_Device_Library/Core/Src/usbd_core.c ****   }
 213:Middlewares/ST/STM32_USB_Device_Library/Core/Src/usbd_core.c **** 
 214:Middlewares/ST/STM32_USB_Device_Library/Core/Src/usbd_core.c ****   /* link the class to the USB Device handle */
 215:Middlewares/ST/STM32_USB_Device_Library/Core/Src/usbd_core.c ****   pdev->pClass[0] = pclass;
 187              		.loc 1 215 3 is_stmt 1 view .LVU57
ARM GAS  C:\Users\User\AppData\Local\Temp\cc8N179E.s 			page 8


 188              		.loc 1 215 19 is_stmt 0 view .LVU58
 189 000e C0F8B812 		str	r1, [r0, #696]
 216:Middlewares/ST/STM32_USB_Device_Library/Core/Src/usbd_core.c **** 
 217:Middlewares/ST/STM32_USB_Device_Library/Core/Src/usbd_core.c ****   /* Get Device Configuration Descriptor */
 218:Middlewares/ST/STM32_USB_Device_Library/Core/Src/usbd_core.c **** #ifdef USE_USB_HS
 219:Middlewares/ST/STM32_USB_Device_Library/Core/Src/usbd_core.c ****   if (pdev->pClass[pdev->classId]->GetHSConfigDescriptor != NULL)
 220:Middlewares/ST/STM32_USB_Device_Library/Core/Src/usbd_core.c ****   {
 221:Middlewares/ST/STM32_USB_Device_Library/Core/Src/usbd_core.c ****     pdev->pConfDesc = (void *)pdev->pClass[pdev->classId]->GetHSConfigDescriptor(&len);
 222:Middlewares/ST/STM32_USB_Device_Library/Core/Src/usbd_core.c ****   }
 223:Middlewares/ST/STM32_USB_Device_Library/Core/Src/usbd_core.c **** #else /* Default USE_USB_FS */
 224:Middlewares/ST/STM32_USB_Device_Library/Core/Src/usbd_core.c ****   if (pdev->pClass[pdev->classId]->GetFSConfigDescriptor != NULL)
 190              		.loc 1 224 3 is_stmt 1 view .LVU59
 191              		.loc 1 224 34 is_stmt 0 view .LVU60
 192 0012 CB6A     		ldr	r3, [r1, #44]
 193              		.loc 1 224 6 view .LVU61
 194 0014 23B1     		cbz	r3, .L14
 225:Middlewares/ST/STM32_USB_Device_Library/Core/Src/usbd_core.c ****   {
 226:Middlewares/ST/STM32_USB_Device_Library/Core/Src/usbd_core.c ****     pdev->pConfDesc = (void *)pdev->pClass[pdev->classId]->GetFSConfigDescriptor(&len);
 195              		.loc 1 226 5 is_stmt 1 view .LVU62
 196              		.loc 1 226 31 is_stmt 0 view .LVU63
 197 0016 0DF10600 		add	r0, sp, #6
 198              	.LVL11:
 199              		.loc 1 226 31 view .LVU64
 200 001a 9847     		blx	r3
 201              	.LVL12:
 202              		.loc 1 226 21 discriminator 1 view .LVU65
 203 001c C4F8D002 		str	r0, [r4, #720]
 204              	.L14:
 227:Middlewares/ST/STM32_USB_Device_Library/Core/Src/usbd_core.c ****   }
 228:Middlewares/ST/STM32_USB_Device_Library/Core/Src/usbd_core.c **** #endif /* USE_USB_FS */
 229:Middlewares/ST/STM32_USB_Device_Library/Core/Src/usbd_core.c **** 
 230:Middlewares/ST/STM32_USB_Device_Library/Core/Src/usbd_core.c ****   /* Increment the NumClasses */
 231:Middlewares/ST/STM32_USB_Device_Library/Core/Src/usbd_core.c ****   pdev->NumClasses ++;
 205              		.loc 1 231 3 is_stmt 1 view .LVU66
 206              		.loc 1 231 7 is_stmt 0 view .LVU67
 207 0020 D4F8D832 		ldr	r3, [r4, #728]
 208              		.loc 1 231 20 view .LVU68
 209 0024 0133     		adds	r3, r3, #1
 210 0026 C4F8D832 		str	r3, [r4, #728]
 232:Middlewares/ST/STM32_USB_Device_Library/Core/Src/usbd_core.c **** 
 233:Middlewares/ST/STM32_USB_Device_Library/Core/Src/usbd_core.c ****   return USBD_OK;
 211              		.loc 1 233 3 is_stmt 1 view .LVU69
 212              		.loc 1 233 10 is_stmt 0 view .LVU70
 213 002a 0020     		movs	r0, #0
 214              	.LVL13:
 215              	.L13:
 234:Middlewares/ST/STM32_USB_Device_Library/Core/Src/usbd_core.c **** }
 216              		.loc 1 234 1 view .LVU71
 217 002c 02B0     		add	sp, sp, #8
 218              		.cfi_remember_state
 219              		.cfi_def_cfa_offset 8
 220              		@ sp needed
 221 002e 10BD     		pop	{r4, pc}
 222              	.LVL14:
 223              	.L15:
 224              		.cfi_restore_state
 211:Middlewares/ST/STM32_USB_Device_Library/Core/Src/usbd_core.c ****   }
ARM GAS  C:\Users\User\AppData\Local\Temp\cc8N179E.s 			page 9


 225              		.loc 1 211 12 view .LVU72
 226 0030 0320     		movs	r0, #3
 227              	.LVL15:
 211:Middlewares/ST/STM32_USB_Device_Library/Core/Src/usbd_core.c ****   }
 228              		.loc 1 211 12 view .LVU73
 229 0032 FBE7     		b	.L13
 230              		.cfi_endproc
 231              	.LFE136:
 233              		.section	.text.USBD_Start,"ax",%progbits
 234              		.align	1
 235              		.global	USBD_Start
 236              		.syntax unified
 237              		.thumb
 238              		.thumb_func
 240              	USBD_Start:
 241              	.LVL16:
 242              	.LFB137:
 235:Middlewares/ST/STM32_USB_Device_Library/Core/Src/usbd_core.c **** 
 236:Middlewares/ST/STM32_USB_Device_Library/Core/Src/usbd_core.c **** #ifdef USE_USBD_COMPOSITE
 237:Middlewares/ST/STM32_USB_Device_Library/Core/Src/usbd_core.c **** /**
 238:Middlewares/ST/STM32_USB_Device_Library/Core/Src/usbd_core.c ****   * @brief  USBD_RegisterClassComposite
 239:Middlewares/ST/STM32_USB_Device_Library/Core/Src/usbd_core.c ****   *         Link class driver to Device Core.
 240:Middlewares/ST/STM32_USB_Device_Library/Core/Src/usbd_core.c ****   * @param  pdev : Device Handle
 241:Middlewares/ST/STM32_USB_Device_Library/Core/Src/usbd_core.c ****   * @param  pclass: Class handle
 242:Middlewares/ST/STM32_USB_Device_Library/Core/Src/usbd_core.c ****   * @param  classtype: Class type
 243:Middlewares/ST/STM32_USB_Device_Library/Core/Src/usbd_core.c ****   * @param  EpAddr: Endpoint Address handle
 244:Middlewares/ST/STM32_USB_Device_Library/Core/Src/usbd_core.c ****   * @retval USBD Status
 245:Middlewares/ST/STM32_USB_Device_Library/Core/Src/usbd_core.c ****   */
 246:Middlewares/ST/STM32_USB_Device_Library/Core/Src/usbd_core.c **** USBD_StatusTypeDef  USBD_RegisterClassComposite(USBD_HandleTypeDef *pdev, USBD_ClassTypeDef *pclass
 247:Middlewares/ST/STM32_USB_Device_Library/Core/Src/usbd_core.c ****                                                 USBD_CompositeClassTypeDef classtype, uint8_t *EpAd
 248:Middlewares/ST/STM32_USB_Device_Library/Core/Src/usbd_core.c **** {
 249:Middlewares/ST/STM32_USB_Device_Library/Core/Src/usbd_core.c ****   USBD_StatusTypeDef   ret = USBD_OK;
 250:Middlewares/ST/STM32_USB_Device_Library/Core/Src/usbd_core.c ****   uint16_t len = 0U;
 251:Middlewares/ST/STM32_USB_Device_Library/Core/Src/usbd_core.c **** 
 252:Middlewares/ST/STM32_USB_Device_Library/Core/Src/usbd_core.c ****   if ((pdev->classId < USBD_MAX_SUPPORTED_CLASS) && (pdev->NumClasses < USBD_MAX_SUPPORTED_CLASS))
 253:Middlewares/ST/STM32_USB_Device_Library/Core/Src/usbd_core.c ****   {
 254:Middlewares/ST/STM32_USB_Device_Library/Core/Src/usbd_core.c ****     if ((uint32_t)pclass != 0U)
 255:Middlewares/ST/STM32_USB_Device_Library/Core/Src/usbd_core.c ****     {
 256:Middlewares/ST/STM32_USB_Device_Library/Core/Src/usbd_core.c ****       /* Link the class to the USB Device handle */
 257:Middlewares/ST/STM32_USB_Device_Library/Core/Src/usbd_core.c ****       pdev->pClass[pdev->classId] = pclass;
 258:Middlewares/ST/STM32_USB_Device_Library/Core/Src/usbd_core.c ****       ret = USBD_OK;
 259:Middlewares/ST/STM32_USB_Device_Library/Core/Src/usbd_core.c **** 
 260:Middlewares/ST/STM32_USB_Device_Library/Core/Src/usbd_core.c ****       pdev->tclasslist[pdev->classId].EpAdd = EpAddr;
 261:Middlewares/ST/STM32_USB_Device_Library/Core/Src/usbd_core.c **** 
 262:Middlewares/ST/STM32_USB_Device_Library/Core/Src/usbd_core.c ****       /* Call the composite class builder */
 263:Middlewares/ST/STM32_USB_Device_Library/Core/Src/usbd_core.c ****       (void)USBD_CMPSIT_AddClass(pdev, pclass, classtype, 0);
 264:Middlewares/ST/STM32_USB_Device_Library/Core/Src/usbd_core.c **** 
 265:Middlewares/ST/STM32_USB_Device_Library/Core/Src/usbd_core.c ****       /* Increment the ClassId for the next occurrence */
 266:Middlewares/ST/STM32_USB_Device_Library/Core/Src/usbd_core.c ****       pdev->classId ++;
 267:Middlewares/ST/STM32_USB_Device_Library/Core/Src/usbd_core.c ****       pdev->NumClasses ++;
 268:Middlewares/ST/STM32_USB_Device_Library/Core/Src/usbd_core.c ****     }
 269:Middlewares/ST/STM32_USB_Device_Library/Core/Src/usbd_core.c ****     else
 270:Middlewares/ST/STM32_USB_Device_Library/Core/Src/usbd_core.c ****     {
 271:Middlewares/ST/STM32_USB_Device_Library/Core/Src/usbd_core.c **** #if (USBD_DEBUG_LEVEL > 1U)
 272:Middlewares/ST/STM32_USB_Device_Library/Core/Src/usbd_core.c ****       USBD_ErrLog("Invalid Class handle");
 273:Middlewares/ST/STM32_USB_Device_Library/Core/Src/usbd_core.c **** #endif /* (USBD_DEBUG_LEVEL > 1U) */
 274:Middlewares/ST/STM32_USB_Device_Library/Core/Src/usbd_core.c ****       ret = USBD_FAIL;
ARM GAS  C:\Users\User\AppData\Local\Temp\cc8N179E.s 			page 10


 275:Middlewares/ST/STM32_USB_Device_Library/Core/Src/usbd_core.c ****     }
 276:Middlewares/ST/STM32_USB_Device_Library/Core/Src/usbd_core.c ****   }
 277:Middlewares/ST/STM32_USB_Device_Library/Core/Src/usbd_core.c **** 
 278:Middlewares/ST/STM32_USB_Device_Library/Core/Src/usbd_core.c ****   if (ret == USBD_OK)
 279:Middlewares/ST/STM32_USB_Device_Library/Core/Src/usbd_core.c ****   {
 280:Middlewares/ST/STM32_USB_Device_Library/Core/Src/usbd_core.c ****     /* Get Device Configuration Descriptor */
 281:Middlewares/ST/STM32_USB_Device_Library/Core/Src/usbd_core.c **** #ifdef USE_USB_HS
 282:Middlewares/ST/STM32_USB_Device_Library/Core/Src/usbd_core.c ****     pdev->pConfDesc = USBD_CMPSIT.GetHSConfigDescriptor(&len);
 283:Middlewares/ST/STM32_USB_Device_Library/Core/Src/usbd_core.c **** #else /* Default USE_USB_FS */
 284:Middlewares/ST/STM32_USB_Device_Library/Core/Src/usbd_core.c ****     pdev->pConfDesc = USBD_CMPSIT.GetFSConfigDescriptor(&len);
 285:Middlewares/ST/STM32_USB_Device_Library/Core/Src/usbd_core.c **** #endif /* USE_USB_FS */
 286:Middlewares/ST/STM32_USB_Device_Library/Core/Src/usbd_core.c ****   }
 287:Middlewares/ST/STM32_USB_Device_Library/Core/Src/usbd_core.c **** 
 288:Middlewares/ST/STM32_USB_Device_Library/Core/Src/usbd_core.c ****   return ret;
 289:Middlewares/ST/STM32_USB_Device_Library/Core/Src/usbd_core.c **** }
 290:Middlewares/ST/STM32_USB_Device_Library/Core/Src/usbd_core.c **** 
 291:Middlewares/ST/STM32_USB_Device_Library/Core/Src/usbd_core.c **** /**
 292:Middlewares/ST/STM32_USB_Device_Library/Core/Src/usbd_core.c ****   * @brief  USBD_UnRegisterClassComposite
 293:Middlewares/ST/STM32_USB_Device_Library/Core/Src/usbd_core.c ****   *         UnLink all composite class drivers from Device Core.
 294:Middlewares/ST/STM32_USB_Device_Library/Core/Src/usbd_core.c ****   * @param  pDevice : Device Handle
 295:Middlewares/ST/STM32_USB_Device_Library/Core/Src/usbd_core.c ****   * @retval USBD Status
 296:Middlewares/ST/STM32_USB_Device_Library/Core/Src/usbd_core.c ****   */
 297:Middlewares/ST/STM32_USB_Device_Library/Core/Src/usbd_core.c **** USBD_StatusTypeDef  USBD_UnRegisterClassComposite(USBD_HandleTypeDef *pdev)
 298:Middlewares/ST/STM32_USB_Device_Library/Core/Src/usbd_core.c **** {
 299:Middlewares/ST/STM32_USB_Device_Library/Core/Src/usbd_core.c ****   USBD_StatusTypeDef   ret = USBD_FAIL;
 300:Middlewares/ST/STM32_USB_Device_Library/Core/Src/usbd_core.c ****   uint8_t idx1;
 301:Middlewares/ST/STM32_USB_Device_Library/Core/Src/usbd_core.c ****   uint8_t idx2;
 302:Middlewares/ST/STM32_USB_Device_Library/Core/Src/usbd_core.c **** 
 303:Middlewares/ST/STM32_USB_Device_Library/Core/Src/usbd_core.c ****   /* Unroll all activated classes */
 304:Middlewares/ST/STM32_USB_Device_Library/Core/Src/usbd_core.c ****   for (idx1 = 0; idx1 < pdev->NumClasses; idx1++)
 305:Middlewares/ST/STM32_USB_Device_Library/Core/Src/usbd_core.c ****   {
 306:Middlewares/ST/STM32_USB_Device_Library/Core/Src/usbd_core.c ****     /* Check if the class correspond to the requested type and if it is active */
 307:Middlewares/ST/STM32_USB_Device_Library/Core/Src/usbd_core.c ****     if (pdev->tclasslist[idx1].Active == 1U)
 308:Middlewares/ST/STM32_USB_Device_Library/Core/Src/usbd_core.c ****     {
 309:Middlewares/ST/STM32_USB_Device_Library/Core/Src/usbd_core.c ****       /* Set the new class ID */
 310:Middlewares/ST/STM32_USB_Device_Library/Core/Src/usbd_core.c ****       pdev->classId = idx1;
 311:Middlewares/ST/STM32_USB_Device_Library/Core/Src/usbd_core.c **** 
 312:Middlewares/ST/STM32_USB_Device_Library/Core/Src/usbd_core.c ****       /* Free resources used by the selected class */
 313:Middlewares/ST/STM32_USB_Device_Library/Core/Src/usbd_core.c ****       if (pdev->pClass[pdev->classId] != NULL)
 314:Middlewares/ST/STM32_USB_Device_Library/Core/Src/usbd_core.c ****       {
 315:Middlewares/ST/STM32_USB_Device_Library/Core/Src/usbd_core.c ****         /* Free Class Resources */
 316:Middlewares/ST/STM32_USB_Device_Library/Core/Src/usbd_core.c ****         if (pdev->pClass[pdev->classId]->DeInit(pdev, (uint8_t)pdev->dev_config) != 0U)
 317:Middlewares/ST/STM32_USB_Device_Library/Core/Src/usbd_core.c ****         {
 318:Middlewares/ST/STM32_USB_Device_Library/Core/Src/usbd_core.c **** #if (USBD_DEBUG_LEVEL > 1U)
 319:Middlewares/ST/STM32_USB_Device_Library/Core/Src/usbd_core.c ****           USBD_ErrLog("Class DeInit didn't succeed!, can't unregister selected class");
 320:Middlewares/ST/STM32_USB_Device_Library/Core/Src/usbd_core.c **** #endif /* (USBD_DEBUG_LEVEL > 1U) */
 321:Middlewares/ST/STM32_USB_Device_Library/Core/Src/usbd_core.c **** 
 322:Middlewares/ST/STM32_USB_Device_Library/Core/Src/usbd_core.c ****           ret = USBD_FAIL;
 323:Middlewares/ST/STM32_USB_Device_Library/Core/Src/usbd_core.c ****         }
 324:Middlewares/ST/STM32_USB_Device_Library/Core/Src/usbd_core.c ****       }
 325:Middlewares/ST/STM32_USB_Device_Library/Core/Src/usbd_core.c **** 
 326:Middlewares/ST/STM32_USB_Device_Library/Core/Src/usbd_core.c ****       /* Free the class pointer */
 327:Middlewares/ST/STM32_USB_Device_Library/Core/Src/usbd_core.c ****       pdev->pClass[pdev->classId] = NULL;
 328:Middlewares/ST/STM32_USB_Device_Library/Core/Src/usbd_core.c **** 
 329:Middlewares/ST/STM32_USB_Device_Library/Core/Src/usbd_core.c ****       /* Free the class location in classes table and reset its parameters to zero */
 330:Middlewares/ST/STM32_USB_Device_Library/Core/Src/usbd_core.c ****       pdev->tclasslist[pdev->classId].ClassType = CLASS_TYPE_NONE;
 331:Middlewares/ST/STM32_USB_Device_Library/Core/Src/usbd_core.c ****       pdev->tclasslist[pdev->classId].ClassId = 0U;
ARM GAS  C:\Users\User\AppData\Local\Temp\cc8N179E.s 			page 11


 332:Middlewares/ST/STM32_USB_Device_Library/Core/Src/usbd_core.c ****       pdev->tclasslist[pdev->classId].Active = 0U;
 333:Middlewares/ST/STM32_USB_Device_Library/Core/Src/usbd_core.c ****       pdev->tclasslist[pdev->classId].NumEps = 0U;
 334:Middlewares/ST/STM32_USB_Device_Library/Core/Src/usbd_core.c ****       pdev->tclasslist[pdev->classId].NumIf = 0U;
 335:Middlewares/ST/STM32_USB_Device_Library/Core/Src/usbd_core.c ****       pdev->tclasslist[pdev->classId].CurrPcktSze = 0U;
 336:Middlewares/ST/STM32_USB_Device_Library/Core/Src/usbd_core.c **** 
 337:Middlewares/ST/STM32_USB_Device_Library/Core/Src/usbd_core.c ****       for (idx2 = 0U; idx2 < USBD_MAX_CLASS_ENDPOINTS; idx2++)
 338:Middlewares/ST/STM32_USB_Device_Library/Core/Src/usbd_core.c ****       {
 339:Middlewares/ST/STM32_USB_Device_Library/Core/Src/usbd_core.c ****         pdev->tclasslist[pdev->classId].Eps[idx2].add = 0U;
 340:Middlewares/ST/STM32_USB_Device_Library/Core/Src/usbd_core.c ****         pdev->tclasslist[pdev->classId].Eps[idx2].type = 0U;
 341:Middlewares/ST/STM32_USB_Device_Library/Core/Src/usbd_core.c ****         pdev->tclasslist[pdev->classId].Eps[idx2].size = 0U;
 342:Middlewares/ST/STM32_USB_Device_Library/Core/Src/usbd_core.c ****         pdev->tclasslist[pdev->classId].Eps[idx2].is_used = 0U;
 343:Middlewares/ST/STM32_USB_Device_Library/Core/Src/usbd_core.c ****       }
 344:Middlewares/ST/STM32_USB_Device_Library/Core/Src/usbd_core.c **** 
 345:Middlewares/ST/STM32_USB_Device_Library/Core/Src/usbd_core.c ****       for (idx2 = 0U; idx2 < USBD_MAX_CLASS_INTERFACES; idx2++)
 346:Middlewares/ST/STM32_USB_Device_Library/Core/Src/usbd_core.c ****       {
 347:Middlewares/ST/STM32_USB_Device_Library/Core/Src/usbd_core.c ****         pdev->tclasslist[pdev->classId].Ifs[idx2] = 0U;
 348:Middlewares/ST/STM32_USB_Device_Library/Core/Src/usbd_core.c ****       }
 349:Middlewares/ST/STM32_USB_Device_Library/Core/Src/usbd_core.c ****     }
 350:Middlewares/ST/STM32_USB_Device_Library/Core/Src/usbd_core.c ****   }
 351:Middlewares/ST/STM32_USB_Device_Library/Core/Src/usbd_core.c **** 
 352:Middlewares/ST/STM32_USB_Device_Library/Core/Src/usbd_core.c ****   /* Reset the configuration descriptor */
 353:Middlewares/ST/STM32_USB_Device_Library/Core/Src/usbd_core.c ****   (void)USBD_CMPST_ClearConfDesc(pdev);
 354:Middlewares/ST/STM32_USB_Device_Library/Core/Src/usbd_core.c **** 
 355:Middlewares/ST/STM32_USB_Device_Library/Core/Src/usbd_core.c ****   /* Reset the class ID and number of classes */
 356:Middlewares/ST/STM32_USB_Device_Library/Core/Src/usbd_core.c ****   pdev->classId = 0U;
 357:Middlewares/ST/STM32_USB_Device_Library/Core/Src/usbd_core.c ****   pdev->NumClasses = 0U;
 358:Middlewares/ST/STM32_USB_Device_Library/Core/Src/usbd_core.c **** 
 359:Middlewares/ST/STM32_USB_Device_Library/Core/Src/usbd_core.c ****   return ret;
 360:Middlewares/ST/STM32_USB_Device_Library/Core/Src/usbd_core.c **** }
 361:Middlewares/ST/STM32_USB_Device_Library/Core/Src/usbd_core.c **** 
 362:Middlewares/ST/STM32_USB_Device_Library/Core/Src/usbd_core.c **** 
 363:Middlewares/ST/STM32_USB_Device_Library/Core/Src/usbd_core.c **** #endif /* USE_USBD_COMPOSITE */
 364:Middlewares/ST/STM32_USB_Device_Library/Core/Src/usbd_core.c **** 
 365:Middlewares/ST/STM32_USB_Device_Library/Core/Src/usbd_core.c **** /**
 366:Middlewares/ST/STM32_USB_Device_Library/Core/Src/usbd_core.c ****   * @brief  USBD_Start
 367:Middlewares/ST/STM32_USB_Device_Library/Core/Src/usbd_core.c ****   *         Start the USB Device Core.
 368:Middlewares/ST/STM32_USB_Device_Library/Core/Src/usbd_core.c ****   * @param  pdev: Device Handle
 369:Middlewares/ST/STM32_USB_Device_Library/Core/Src/usbd_core.c ****   * @retval USBD Status
 370:Middlewares/ST/STM32_USB_Device_Library/Core/Src/usbd_core.c ****   */
 371:Middlewares/ST/STM32_USB_Device_Library/Core/Src/usbd_core.c **** USBD_StatusTypeDef USBD_Start(USBD_HandleTypeDef *pdev)
 372:Middlewares/ST/STM32_USB_Device_Library/Core/Src/usbd_core.c **** {
 243              		.loc 1 372 1 is_stmt 1 view -0
 244              		.cfi_startproc
 245              		@ args = 0, pretend = 0, frame = 0
 246              		@ frame_needed = 0, uses_anonymous_args = 0
 247              		.loc 1 372 1 is_stmt 0 view .LVU75
 248 0000 08B5     		push	{r3, lr}
 249              		.cfi_def_cfa_offset 8
 250              		.cfi_offset 3, -8
 251              		.cfi_offset 14, -4
 373:Middlewares/ST/STM32_USB_Device_Library/Core/Src/usbd_core.c **** #ifdef USE_USBD_COMPOSITE
 374:Middlewares/ST/STM32_USB_Device_Library/Core/Src/usbd_core.c ****   pdev->classId = 0U;
 375:Middlewares/ST/STM32_USB_Device_Library/Core/Src/usbd_core.c **** #endif /* USE_USBD_COMPOSITE */
 376:Middlewares/ST/STM32_USB_Device_Library/Core/Src/usbd_core.c **** 
 377:Middlewares/ST/STM32_USB_Device_Library/Core/Src/usbd_core.c ****   /* Start the low level driver  */
 378:Middlewares/ST/STM32_USB_Device_Library/Core/Src/usbd_core.c ****   return USBD_LL_Start(pdev);
 252              		.loc 1 378 3 is_stmt 1 view .LVU76
ARM GAS  C:\Users\User\AppData\Local\Temp\cc8N179E.s 			page 12


 253              		.loc 1 378 10 is_stmt 0 view .LVU77
 254 0002 FFF7FEFF 		bl	USBD_LL_Start
 255              	.LVL17:
 379:Middlewares/ST/STM32_USB_Device_Library/Core/Src/usbd_core.c **** }
 256              		.loc 1 379 1 view .LVU78
 257 0006 08BD     		pop	{r3, pc}
 258              		.cfi_endproc
 259              	.LFE137:
 261              		.section	.text.USBD_Stop,"ax",%progbits
 262              		.align	1
 263              		.global	USBD_Stop
 264              		.syntax unified
 265              		.thumb
 266              		.thumb_func
 268              	USBD_Stop:
 269              	.LVL18:
 270              	.LFB138:
 380:Middlewares/ST/STM32_USB_Device_Library/Core/Src/usbd_core.c **** 
 381:Middlewares/ST/STM32_USB_Device_Library/Core/Src/usbd_core.c **** /**
 382:Middlewares/ST/STM32_USB_Device_Library/Core/Src/usbd_core.c ****   * @brief  USBD_Stop
 383:Middlewares/ST/STM32_USB_Device_Library/Core/Src/usbd_core.c ****   *         Stop the USB Device Core.
 384:Middlewares/ST/STM32_USB_Device_Library/Core/Src/usbd_core.c ****   * @param  pdev: Device Handle
 385:Middlewares/ST/STM32_USB_Device_Library/Core/Src/usbd_core.c ****   * @retval USBD Status
 386:Middlewares/ST/STM32_USB_Device_Library/Core/Src/usbd_core.c ****   */
 387:Middlewares/ST/STM32_USB_Device_Library/Core/Src/usbd_core.c **** USBD_StatusTypeDef USBD_Stop(USBD_HandleTypeDef *pdev)
 388:Middlewares/ST/STM32_USB_Device_Library/Core/Src/usbd_core.c **** {
 271              		.loc 1 388 1 is_stmt 1 view -0
 272              		.cfi_startproc
 273              		@ args = 0, pretend = 0, frame = 0
 274              		@ frame_needed = 0, uses_anonymous_args = 0
 275              		.loc 1 388 1 is_stmt 0 view .LVU80
 276 0000 10B5     		push	{r4, lr}
 277              		.cfi_def_cfa_offset 8
 278              		.cfi_offset 4, -8
 279              		.cfi_offset 14, -4
 280 0002 0446     		mov	r4, r0
 389:Middlewares/ST/STM32_USB_Device_Library/Core/Src/usbd_core.c ****   /* Disconnect USB Device */
 390:Middlewares/ST/STM32_USB_Device_Library/Core/Src/usbd_core.c ****   (void)USBD_LL_Stop(pdev);
 281              		.loc 1 390 3 is_stmt 1 view .LVU81
 282              		.loc 1 390 9 is_stmt 0 view .LVU82
 283 0004 FFF7FEFF 		bl	USBD_LL_Stop
 284              	.LVL19:
 391:Middlewares/ST/STM32_USB_Device_Library/Core/Src/usbd_core.c **** 
 392:Middlewares/ST/STM32_USB_Device_Library/Core/Src/usbd_core.c ****   /* Free Class Resources */
 393:Middlewares/ST/STM32_USB_Device_Library/Core/Src/usbd_core.c **** #ifdef USE_USBD_COMPOSITE
 394:Middlewares/ST/STM32_USB_Device_Library/Core/Src/usbd_core.c ****   /* Parse the table of classes in use */
 395:Middlewares/ST/STM32_USB_Device_Library/Core/Src/usbd_core.c ****   for (uint32_t i = 0U; i < USBD_MAX_SUPPORTED_CLASS; i++)
 396:Middlewares/ST/STM32_USB_Device_Library/Core/Src/usbd_core.c ****   {
 397:Middlewares/ST/STM32_USB_Device_Library/Core/Src/usbd_core.c ****     /* Check if current class is in use */
 398:Middlewares/ST/STM32_USB_Device_Library/Core/Src/usbd_core.c ****     if ((pdev->tclasslist[i].Active) == 1U)
 399:Middlewares/ST/STM32_USB_Device_Library/Core/Src/usbd_core.c ****     {
 400:Middlewares/ST/STM32_USB_Device_Library/Core/Src/usbd_core.c ****       if (pdev->pClass[i] != NULL)
 401:Middlewares/ST/STM32_USB_Device_Library/Core/Src/usbd_core.c ****       {
 402:Middlewares/ST/STM32_USB_Device_Library/Core/Src/usbd_core.c ****         pdev->classId = i;
 403:Middlewares/ST/STM32_USB_Device_Library/Core/Src/usbd_core.c ****         /* Free Class Resources */
 404:Middlewares/ST/STM32_USB_Device_Library/Core/Src/usbd_core.c ****         (void)pdev->pClass[i]->DeInit(pdev, (uint8_t)pdev->dev_config);
 405:Middlewares/ST/STM32_USB_Device_Library/Core/Src/usbd_core.c ****       }
ARM GAS  C:\Users\User\AppData\Local\Temp\cc8N179E.s 			page 13


 406:Middlewares/ST/STM32_USB_Device_Library/Core/Src/usbd_core.c ****     }
 407:Middlewares/ST/STM32_USB_Device_Library/Core/Src/usbd_core.c ****   }
 408:Middlewares/ST/STM32_USB_Device_Library/Core/Src/usbd_core.c **** 
 409:Middlewares/ST/STM32_USB_Device_Library/Core/Src/usbd_core.c ****   /* Reset the class ID */
 410:Middlewares/ST/STM32_USB_Device_Library/Core/Src/usbd_core.c ****   pdev->classId = 0U;
 411:Middlewares/ST/STM32_USB_Device_Library/Core/Src/usbd_core.c **** #else
 412:Middlewares/ST/STM32_USB_Device_Library/Core/Src/usbd_core.c ****   if (pdev->pClass[0] != NULL)
 285              		.loc 1 412 3 is_stmt 1 view .LVU83
 286              		.loc 1 412 19 is_stmt 0 view .LVU84
 287 0008 D4F8B832 		ldr	r3, [r4, #696]
 288              		.loc 1 412 6 view .LVU85
 289 000c 1BB1     		cbz	r3, .L20
 413:Middlewares/ST/STM32_USB_Device_Library/Core/Src/usbd_core.c ****   {
 414:Middlewares/ST/STM32_USB_Device_Library/Core/Src/usbd_core.c ****     (void)pdev->pClass[0]->DeInit(pdev, (uint8_t)pdev->dev_config);
 290              		.loc 1 414 5 is_stmt 1 view .LVU86
 291              		.loc 1 414 26 is_stmt 0 view .LVU87
 292 000e 5B68     		ldr	r3, [r3, #4]
 293              		.loc 1 414 11 view .LVU88
 294 0010 2179     		ldrb	r1, [r4, #4]	@ zero_extendqisi2
 295 0012 2046     		mov	r0, r4
 296 0014 9847     		blx	r3
 297              	.LVL20:
 298              	.L20:
 415:Middlewares/ST/STM32_USB_Device_Library/Core/Src/usbd_core.c ****   }
 416:Middlewares/ST/STM32_USB_Device_Library/Core/Src/usbd_core.c **** #endif /* USE_USBD_COMPOSITE */
 417:Middlewares/ST/STM32_USB_Device_Library/Core/Src/usbd_core.c **** 
 418:Middlewares/ST/STM32_USB_Device_Library/Core/Src/usbd_core.c ****   return USBD_OK;
 299              		.loc 1 418 3 is_stmt 1 view .LVU89
 419:Middlewares/ST/STM32_USB_Device_Library/Core/Src/usbd_core.c **** }
 300              		.loc 1 419 1 is_stmt 0 view .LVU90
 301 0016 0020     		movs	r0, #0
 302 0018 10BD     		pop	{r4, pc}
 303              		.loc 1 419 1 view .LVU91
 304              		.cfi_endproc
 305              	.LFE138:
 307              		.section	.text.USBD_RunTestMode,"ax",%progbits
 308              		.align	1
 309              		.global	USBD_RunTestMode
 310              		.syntax unified
 311              		.thumb
 312              		.thumb_func
 314              	USBD_RunTestMode:
 315              	.LVL21:
 316              	.LFB139:
 420:Middlewares/ST/STM32_USB_Device_Library/Core/Src/usbd_core.c **** 
 421:Middlewares/ST/STM32_USB_Device_Library/Core/Src/usbd_core.c **** /**
 422:Middlewares/ST/STM32_USB_Device_Library/Core/Src/usbd_core.c ****   * @brief  USBD_RunTestMode
 423:Middlewares/ST/STM32_USB_Device_Library/Core/Src/usbd_core.c ****   *         Launch test mode process
 424:Middlewares/ST/STM32_USB_Device_Library/Core/Src/usbd_core.c ****   * @param  pdev: device instance
 425:Middlewares/ST/STM32_USB_Device_Library/Core/Src/usbd_core.c ****   * @retval status
 426:Middlewares/ST/STM32_USB_Device_Library/Core/Src/usbd_core.c ****   */
 427:Middlewares/ST/STM32_USB_Device_Library/Core/Src/usbd_core.c **** USBD_StatusTypeDef USBD_RunTestMode(USBD_HandleTypeDef *pdev)
 428:Middlewares/ST/STM32_USB_Device_Library/Core/Src/usbd_core.c **** {
 317              		.loc 1 428 1 is_stmt 1 view -0
 318              		.cfi_startproc
 319              		@ args = 0, pretend = 0, frame = 0
 320              		@ frame_needed = 0, uses_anonymous_args = 0
ARM GAS  C:\Users\User\AppData\Local\Temp\cc8N179E.s 			page 14


 321              		@ link register save eliminated.
 429:Middlewares/ST/STM32_USB_Device_Library/Core/Src/usbd_core.c **** #ifdef USBD_HS_TESTMODE_ENABLE
 430:Middlewares/ST/STM32_USB_Device_Library/Core/Src/usbd_core.c ****   USBD_StatusTypeDef ret;
 431:Middlewares/ST/STM32_USB_Device_Library/Core/Src/usbd_core.c **** 
 432:Middlewares/ST/STM32_USB_Device_Library/Core/Src/usbd_core.c ****   /* Run USB HS test mode */
 433:Middlewares/ST/STM32_USB_Device_Library/Core/Src/usbd_core.c ****   ret = USBD_LL_SetTestMode(pdev, pdev->dev_test_mode);
 434:Middlewares/ST/STM32_USB_Device_Library/Core/Src/usbd_core.c **** 
 435:Middlewares/ST/STM32_USB_Device_Library/Core/Src/usbd_core.c ****   return ret;
 436:Middlewares/ST/STM32_USB_Device_Library/Core/Src/usbd_core.c **** #else
 437:Middlewares/ST/STM32_USB_Device_Library/Core/Src/usbd_core.c ****   /* Prevent unused argument compilation warning */
 438:Middlewares/ST/STM32_USB_Device_Library/Core/Src/usbd_core.c ****   UNUSED(pdev);
 322              		.loc 1 438 3 view .LVU93
 439:Middlewares/ST/STM32_USB_Device_Library/Core/Src/usbd_core.c **** 
 440:Middlewares/ST/STM32_USB_Device_Library/Core/Src/usbd_core.c ****   return USBD_OK;
 323              		.loc 1 440 3 view .LVU94
 441:Middlewares/ST/STM32_USB_Device_Library/Core/Src/usbd_core.c **** #endif /* USBD_HS_TESTMODE_ENABLE */
 442:Middlewares/ST/STM32_USB_Device_Library/Core/Src/usbd_core.c **** }
 324              		.loc 1 442 1 is_stmt 0 view .LVU95
 325 0000 0020     		movs	r0, #0
 326              	.LVL22:
 327              		.loc 1 442 1 view .LVU96
 328 0002 7047     		bx	lr
 329              		.cfi_endproc
 330              	.LFE139:
 332              		.section	.text.USBD_SetClassConfig,"ax",%progbits
 333              		.align	1
 334              		.global	USBD_SetClassConfig
 335              		.syntax unified
 336              		.thumb
 337              		.thumb_func
 339              	USBD_SetClassConfig:
 340              	.LVL23:
 341              	.LFB140:
 443:Middlewares/ST/STM32_USB_Device_Library/Core/Src/usbd_core.c **** 
 444:Middlewares/ST/STM32_USB_Device_Library/Core/Src/usbd_core.c **** /**
 445:Middlewares/ST/STM32_USB_Device_Library/Core/Src/usbd_core.c ****   * @brief  USBD_SetClassConfig
 446:Middlewares/ST/STM32_USB_Device_Library/Core/Src/usbd_core.c ****   *        Configure device and start the interface
 447:Middlewares/ST/STM32_USB_Device_Library/Core/Src/usbd_core.c ****   * @param  pdev: device instance
 448:Middlewares/ST/STM32_USB_Device_Library/Core/Src/usbd_core.c ****   * @param  cfgidx: configuration index
 449:Middlewares/ST/STM32_USB_Device_Library/Core/Src/usbd_core.c ****   * @retval status
 450:Middlewares/ST/STM32_USB_Device_Library/Core/Src/usbd_core.c ****   */
 451:Middlewares/ST/STM32_USB_Device_Library/Core/Src/usbd_core.c **** 
 452:Middlewares/ST/STM32_USB_Device_Library/Core/Src/usbd_core.c **** USBD_StatusTypeDef USBD_SetClassConfig(USBD_HandleTypeDef *pdev, uint8_t cfgidx)
 453:Middlewares/ST/STM32_USB_Device_Library/Core/Src/usbd_core.c **** {
 342              		.loc 1 453 1 is_stmt 1 view -0
 343              		.cfi_startproc
 344              		@ args = 0, pretend = 0, frame = 0
 345              		@ frame_needed = 0, uses_anonymous_args = 0
 346              		.loc 1 453 1 is_stmt 0 view .LVU98
 347 0000 08B5     		push	{r3, lr}
 348              		.cfi_def_cfa_offset 8
 349              		.cfi_offset 3, -8
 350              		.cfi_offset 14, -4
 454:Middlewares/ST/STM32_USB_Device_Library/Core/Src/usbd_core.c ****   USBD_StatusTypeDef ret = USBD_OK;
 351              		.loc 1 454 3 is_stmt 1 view .LVU99
 352              	.LVL24:
 455:Middlewares/ST/STM32_USB_Device_Library/Core/Src/usbd_core.c **** 
ARM GAS  C:\Users\User\AppData\Local\Temp\cc8N179E.s 			page 15


 456:Middlewares/ST/STM32_USB_Device_Library/Core/Src/usbd_core.c **** #ifdef USE_USBD_COMPOSITE
 457:Middlewares/ST/STM32_USB_Device_Library/Core/Src/usbd_core.c ****   /* Parse the table of classes in use */
 458:Middlewares/ST/STM32_USB_Device_Library/Core/Src/usbd_core.c ****   for (uint32_t i = 0U; i < USBD_MAX_SUPPORTED_CLASS; i++)
 459:Middlewares/ST/STM32_USB_Device_Library/Core/Src/usbd_core.c ****   {
 460:Middlewares/ST/STM32_USB_Device_Library/Core/Src/usbd_core.c ****     /* Check if current class is in use */
 461:Middlewares/ST/STM32_USB_Device_Library/Core/Src/usbd_core.c ****     if ((pdev->tclasslist[i].Active) == 1U)
 462:Middlewares/ST/STM32_USB_Device_Library/Core/Src/usbd_core.c ****     {
 463:Middlewares/ST/STM32_USB_Device_Library/Core/Src/usbd_core.c ****       if (pdev->pClass[i] != NULL)
 464:Middlewares/ST/STM32_USB_Device_Library/Core/Src/usbd_core.c ****       {
 465:Middlewares/ST/STM32_USB_Device_Library/Core/Src/usbd_core.c ****         pdev->classId = i;
 466:Middlewares/ST/STM32_USB_Device_Library/Core/Src/usbd_core.c ****         /* Set configuration  and Start the Class*/
 467:Middlewares/ST/STM32_USB_Device_Library/Core/Src/usbd_core.c ****         if (pdev->pClass[i]->Init(pdev, cfgidx) != 0U)
 468:Middlewares/ST/STM32_USB_Device_Library/Core/Src/usbd_core.c ****         {
 469:Middlewares/ST/STM32_USB_Device_Library/Core/Src/usbd_core.c ****           ret = USBD_FAIL;
 470:Middlewares/ST/STM32_USB_Device_Library/Core/Src/usbd_core.c ****         }
 471:Middlewares/ST/STM32_USB_Device_Library/Core/Src/usbd_core.c ****       }
 472:Middlewares/ST/STM32_USB_Device_Library/Core/Src/usbd_core.c ****     }
 473:Middlewares/ST/STM32_USB_Device_Library/Core/Src/usbd_core.c ****   }
 474:Middlewares/ST/STM32_USB_Device_Library/Core/Src/usbd_core.c **** #else
 475:Middlewares/ST/STM32_USB_Device_Library/Core/Src/usbd_core.c ****   if (pdev->pClass[0] != NULL)
 353              		.loc 1 475 3 view .LVU100
 354              		.loc 1 475 19 is_stmt 0 view .LVU101
 355 0002 D0F8B832 		ldr	r3, [r0, #696]
 356              		.loc 1 475 6 view .LVU102
 357 0006 13B1     		cbz	r3, .L25
 476:Middlewares/ST/STM32_USB_Device_Library/Core/Src/usbd_core.c ****   {
 477:Middlewares/ST/STM32_USB_Device_Library/Core/Src/usbd_core.c ****     /* Set configuration and Start the Class */
 478:Middlewares/ST/STM32_USB_Device_Library/Core/Src/usbd_core.c ****     ret = (USBD_StatusTypeDef)pdev->pClass[0]->Init(pdev, cfgidx);
 358              		.loc 1 478 5 is_stmt 1 view .LVU103
 359              		.loc 1 478 46 is_stmt 0 view .LVU104
 360 0008 1B68     		ldr	r3, [r3]
 361              		.loc 1 478 31 view .LVU105
 362 000a 9847     		blx	r3
 363              	.LVL25:
 364              	.L24:
 479:Middlewares/ST/STM32_USB_Device_Library/Core/Src/usbd_core.c ****   }
 480:Middlewares/ST/STM32_USB_Device_Library/Core/Src/usbd_core.c **** #endif /* USE_USBD_COMPOSITE */
 481:Middlewares/ST/STM32_USB_Device_Library/Core/Src/usbd_core.c **** 
 482:Middlewares/ST/STM32_USB_Device_Library/Core/Src/usbd_core.c ****   return ret;
 365              		.loc 1 482 3 is_stmt 1 view .LVU106
 483:Middlewares/ST/STM32_USB_Device_Library/Core/Src/usbd_core.c **** }
 366              		.loc 1 483 1 is_stmt 0 view .LVU107
 367 000c 08BD     		pop	{r3, pc}
 368              	.LVL26:
 369              	.L25:
 454:Middlewares/ST/STM32_USB_Device_Library/Core/Src/usbd_core.c **** 
 370              		.loc 1 454 22 view .LVU108
 371 000e 0020     		movs	r0, #0
 372              	.LVL27:
 454:Middlewares/ST/STM32_USB_Device_Library/Core/Src/usbd_core.c **** 
 373              		.loc 1 454 22 view .LVU109
 374 0010 FCE7     		b	.L24
 375              		.cfi_endproc
 376              	.LFE140:
 378              		.section	.text.USBD_ClrClassConfig,"ax",%progbits
 379              		.align	1
 380              		.global	USBD_ClrClassConfig
ARM GAS  C:\Users\User\AppData\Local\Temp\cc8N179E.s 			page 16


 381              		.syntax unified
 382              		.thumb
 383              		.thumb_func
 385              	USBD_ClrClassConfig:
 386              	.LVL28:
 387              	.LFB141:
 484:Middlewares/ST/STM32_USB_Device_Library/Core/Src/usbd_core.c **** 
 485:Middlewares/ST/STM32_USB_Device_Library/Core/Src/usbd_core.c **** /**
 486:Middlewares/ST/STM32_USB_Device_Library/Core/Src/usbd_core.c ****   * @brief  USBD_ClrClassConfig
 487:Middlewares/ST/STM32_USB_Device_Library/Core/Src/usbd_core.c ****   *         Clear current configuration
 488:Middlewares/ST/STM32_USB_Device_Library/Core/Src/usbd_core.c ****   * @param  pdev: device instance
 489:Middlewares/ST/STM32_USB_Device_Library/Core/Src/usbd_core.c ****   * @param  cfgidx: configuration index
 490:Middlewares/ST/STM32_USB_Device_Library/Core/Src/usbd_core.c ****   * @retval status: USBD_StatusTypeDef
 491:Middlewares/ST/STM32_USB_Device_Library/Core/Src/usbd_core.c ****   */
 492:Middlewares/ST/STM32_USB_Device_Library/Core/Src/usbd_core.c **** USBD_StatusTypeDef USBD_ClrClassConfig(USBD_HandleTypeDef *pdev, uint8_t cfgidx)
 493:Middlewares/ST/STM32_USB_Device_Library/Core/Src/usbd_core.c **** {
 388              		.loc 1 493 1 is_stmt 1 view -0
 389              		.cfi_startproc
 390              		@ args = 0, pretend = 0, frame = 0
 391              		@ frame_needed = 0, uses_anonymous_args = 0
 392              		.loc 1 493 1 is_stmt 0 view .LVU111
 393 0000 08B5     		push	{r3, lr}
 394              		.cfi_def_cfa_offset 8
 395              		.cfi_offset 3, -8
 396              		.cfi_offset 14, -4
 494:Middlewares/ST/STM32_USB_Device_Library/Core/Src/usbd_core.c ****   USBD_StatusTypeDef ret = USBD_OK;
 397              		.loc 1 494 3 is_stmt 1 view .LVU112
 398              	.LVL29:
 495:Middlewares/ST/STM32_USB_Device_Library/Core/Src/usbd_core.c **** 
 496:Middlewares/ST/STM32_USB_Device_Library/Core/Src/usbd_core.c **** #ifdef USE_USBD_COMPOSITE
 497:Middlewares/ST/STM32_USB_Device_Library/Core/Src/usbd_core.c ****   /* Parse the table of classes in use */
 498:Middlewares/ST/STM32_USB_Device_Library/Core/Src/usbd_core.c ****   for (uint32_t i = 0U; i < USBD_MAX_SUPPORTED_CLASS; i++)
 499:Middlewares/ST/STM32_USB_Device_Library/Core/Src/usbd_core.c ****   {
 500:Middlewares/ST/STM32_USB_Device_Library/Core/Src/usbd_core.c ****     /* Check if current class is in use */
 501:Middlewares/ST/STM32_USB_Device_Library/Core/Src/usbd_core.c ****     if ((pdev->tclasslist[i].Active) == 1U)
 502:Middlewares/ST/STM32_USB_Device_Library/Core/Src/usbd_core.c ****     {
 503:Middlewares/ST/STM32_USB_Device_Library/Core/Src/usbd_core.c ****       if (pdev->pClass[i] != NULL)
 504:Middlewares/ST/STM32_USB_Device_Library/Core/Src/usbd_core.c ****       {
 505:Middlewares/ST/STM32_USB_Device_Library/Core/Src/usbd_core.c ****         pdev->classId = i;
 506:Middlewares/ST/STM32_USB_Device_Library/Core/Src/usbd_core.c ****         /* Clear configuration  and De-initialize the Class process */
 507:Middlewares/ST/STM32_USB_Device_Library/Core/Src/usbd_core.c ****         if (pdev->pClass[i]->DeInit(pdev, cfgidx) != 0U)
 508:Middlewares/ST/STM32_USB_Device_Library/Core/Src/usbd_core.c ****         {
 509:Middlewares/ST/STM32_USB_Device_Library/Core/Src/usbd_core.c ****           ret = USBD_FAIL;
 510:Middlewares/ST/STM32_USB_Device_Library/Core/Src/usbd_core.c ****         }
 511:Middlewares/ST/STM32_USB_Device_Library/Core/Src/usbd_core.c ****       }
 512:Middlewares/ST/STM32_USB_Device_Library/Core/Src/usbd_core.c ****     }
 513:Middlewares/ST/STM32_USB_Device_Library/Core/Src/usbd_core.c ****   }
 514:Middlewares/ST/STM32_USB_Device_Library/Core/Src/usbd_core.c **** #else
 515:Middlewares/ST/STM32_USB_Device_Library/Core/Src/usbd_core.c ****   /* Clear configuration  and De-initialize the Class process */
 516:Middlewares/ST/STM32_USB_Device_Library/Core/Src/usbd_core.c ****   if (pdev->pClass[0]->DeInit(pdev, cfgidx) != 0U)
 399              		.loc 1 516 3 view .LVU113
 400              		.loc 1 516 19 is_stmt 0 view .LVU114
 401 0002 D0F8B832 		ldr	r3, [r0, #696]
 402              		.loc 1 516 22 view .LVU115
 403 0006 5B68     		ldr	r3, [r3, #4]
 404              		.loc 1 516 7 view .LVU116
 405 0008 9847     		blx	r3
ARM GAS  C:\Users\User\AppData\Local\Temp\cc8N179E.s 			page 17


 406              	.LVL30:
 407              		.loc 1 516 6 discriminator 1 view .LVU117
 408 000a 00B9     		cbnz	r0, .L31
 409              	.L28:
 410              	.LVL31:
 517:Middlewares/ST/STM32_USB_Device_Library/Core/Src/usbd_core.c ****   {
 518:Middlewares/ST/STM32_USB_Device_Library/Core/Src/usbd_core.c ****     ret = USBD_FAIL;
 519:Middlewares/ST/STM32_USB_Device_Library/Core/Src/usbd_core.c ****   }
 520:Middlewares/ST/STM32_USB_Device_Library/Core/Src/usbd_core.c **** #endif /* USE_USBD_COMPOSITE */
 521:Middlewares/ST/STM32_USB_Device_Library/Core/Src/usbd_core.c **** 
 522:Middlewares/ST/STM32_USB_Device_Library/Core/Src/usbd_core.c ****   return ret;
 411              		.loc 1 522 3 is_stmt 1 view .LVU118
 523:Middlewares/ST/STM32_USB_Device_Library/Core/Src/usbd_core.c **** }
 412              		.loc 1 523 1 is_stmt 0 view .LVU119
 413 000c 08BD     		pop	{r3, pc}
 414              	.LVL32:
 415              	.L31:
 518:Middlewares/ST/STM32_USB_Device_Library/Core/Src/usbd_core.c ****   }
 416              		.loc 1 518 9 view .LVU120
 417 000e 0320     		movs	r0, #3
 418 0010 FCE7     		b	.L28
 419              		.cfi_endproc
 420              	.LFE141:
 422              		.section	.text.USBD_LL_SetupStage,"ax",%progbits
 423              		.align	1
 424              		.global	USBD_LL_SetupStage
 425              		.syntax unified
 426              		.thumb
 427              		.thumb_func
 429              	USBD_LL_SetupStage:
 430              	.LVL33:
 431              	.LFB142:
 524:Middlewares/ST/STM32_USB_Device_Library/Core/Src/usbd_core.c **** 
 525:Middlewares/ST/STM32_USB_Device_Library/Core/Src/usbd_core.c **** 
 526:Middlewares/ST/STM32_USB_Device_Library/Core/Src/usbd_core.c **** /**
 527:Middlewares/ST/STM32_USB_Device_Library/Core/Src/usbd_core.c ****   * @brief  USBD_LL_SetupStage
 528:Middlewares/ST/STM32_USB_Device_Library/Core/Src/usbd_core.c ****   *         Handle the setup stage
 529:Middlewares/ST/STM32_USB_Device_Library/Core/Src/usbd_core.c ****   * @param  pdev: device instance
 530:Middlewares/ST/STM32_USB_Device_Library/Core/Src/usbd_core.c ****   * @retval status
 531:Middlewares/ST/STM32_USB_Device_Library/Core/Src/usbd_core.c ****   */
 532:Middlewares/ST/STM32_USB_Device_Library/Core/Src/usbd_core.c **** USBD_StatusTypeDef USBD_LL_SetupStage(USBD_HandleTypeDef *pdev, uint8_t *psetup)
 533:Middlewares/ST/STM32_USB_Device_Library/Core/Src/usbd_core.c **** {
 432              		.loc 1 533 1 is_stmt 1 view -0
 433              		.cfi_startproc
 434              		@ args = 0, pretend = 0, frame = 0
 435              		@ frame_needed = 0, uses_anonymous_args = 0
 436              		.loc 1 533 1 is_stmt 0 view .LVU122
 437 0000 38B5     		push	{r3, r4, r5, lr}
 438              		.cfi_def_cfa_offset 16
 439              		.cfi_offset 3, -16
 440              		.cfi_offset 4, -12
 441              		.cfi_offset 5, -8
 442              		.cfi_offset 14, -4
 443 0002 0446     		mov	r4, r0
 534:Middlewares/ST/STM32_USB_Device_Library/Core/Src/usbd_core.c ****   USBD_StatusTypeDef ret;
 444              		.loc 1 534 3 is_stmt 1 view .LVU123
 535:Middlewares/ST/STM32_USB_Device_Library/Core/Src/usbd_core.c **** 
ARM GAS  C:\Users\User\AppData\Local\Temp\cc8N179E.s 			page 18


 536:Middlewares/ST/STM32_USB_Device_Library/Core/Src/usbd_core.c ****   USBD_ParseSetupRequest(&pdev->request, psetup);
 445              		.loc 1 536 3 view .LVU124
 446 0004 00F2AA25 		addw	r5, r0, #682
 447 0008 2846     		mov	r0, r5
 448              	.LVL34:
 449              		.loc 1 536 3 is_stmt 0 view .LVU125
 450 000a FFF7FEFF 		bl	USBD_ParseSetupRequest
 451              	.LVL35:
 537:Middlewares/ST/STM32_USB_Device_Library/Core/Src/usbd_core.c **** 
 538:Middlewares/ST/STM32_USB_Device_Library/Core/Src/usbd_core.c ****   pdev->ep0_state = USBD_EP0_SETUP;
 452              		.loc 1 538 3 is_stmt 1 view .LVU126
 453              		.loc 1 538 19 is_stmt 0 view .LVU127
 454 000e 0123     		movs	r3, #1
 455 0010 C4F89432 		str	r3, [r4, #660]
 539:Middlewares/ST/STM32_USB_Device_Library/Core/Src/usbd_core.c **** 
 540:Middlewares/ST/STM32_USB_Device_Library/Core/Src/usbd_core.c ****   pdev->ep0_data_len = pdev->request.wLength;
 456              		.loc 1 540 3 is_stmt 1 view .LVU128
 457              		.loc 1 540 37 is_stmt 0 view .LVU129
 458 0014 B4F8B032 		ldrh	r3, [r4, #688]
 459              		.loc 1 540 22 view .LVU130
 460 0018 C4F89832 		str	r3, [r4, #664]
 541:Middlewares/ST/STM32_USB_Device_Library/Core/Src/usbd_core.c **** 
 542:Middlewares/ST/STM32_USB_Device_Library/Core/Src/usbd_core.c ****   switch (pdev->request.bmRequest & 0x1FU)
 461              		.loc 1 542 3 is_stmt 1 view .LVU131
 462              		.loc 1 542 24 is_stmt 0 view .LVU132
 463 001c 94F8AA12 		ldrb	r1, [r4, #682]	@ zero_extendqisi2
 464 0020 01F01F03 		and	r3, r1, #31
 465              		.loc 1 542 3 view .LVU133
 466 0024 012B     		cmp	r3, #1
 467 0026 07D0     		beq	.L33
 468 0028 022B     		cmp	r3, #2
 469 002a 0AD0     		beq	.L34
 470 002c 73B9     		cbnz	r3, .L35
 543:Middlewares/ST/STM32_USB_Device_Library/Core/Src/usbd_core.c ****   {
 544:Middlewares/ST/STM32_USB_Device_Library/Core/Src/usbd_core.c ****     case USB_REQ_RECIPIENT_DEVICE:
 545:Middlewares/ST/STM32_USB_Device_Library/Core/Src/usbd_core.c ****       ret = USBD_StdDevReq(pdev, &pdev->request);
 471              		.loc 1 545 7 is_stmt 1 view .LVU134
 472              		.loc 1 545 13 is_stmt 0 view .LVU135
 473 002e 2946     		mov	r1, r5
 474 0030 2046     		mov	r0, r4
 475 0032 FFF7FEFF 		bl	USBD_StdDevReq
 476              	.LVL36:
 546:Middlewares/ST/STM32_USB_Device_Library/Core/Src/usbd_core.c ****       break;
 477              		.loc 1 546 7 is_stmt 1 view .LVU136
 478              	.L36:
 547:Middlewares/ST/STM32_USB_Device_Library/Core/Src/usbd_core.c **** 
 548:Middlewares/ST/STM32_USB_Device_Library/Core/Src/usbd_core.c ****     case USB_REQ_RECIPIENT_INTERFACE:
 549:Middlewares/ST/STM32_USB_Device_Library/Core/Src/usbd_core.c ****       ret = USBD_StdItfReq(pdev, &pdev->request);
 550:Middlewares/ST/STM32_USB_Device_Library/Core/Src/usbd_core.c ****       break;
 551:Middlewares/ST/STM32_USB_Device_Library/Core/Src/usbd_core.c **** 
 552:Middlewares/ST/STM32_USB_Device_Library/Core/Src/usbd_core.c ****     case USB_REQ_RECIPIENT_ENDPOINT:
 553:Middlewares/ST/STM32_USB_Device_Library/Core/Src/usbd_core.c ****       ret = USBD_StdEPReq(pdev, &pdev->request);
 554:Middlewares/ST/STM32_USB_Device_Library/Core/Src/usbd_core.c ****       break;
 555:Middlewares/ST/STM32_USB_Device_Library/Core/Src/usbd_core.c **** 
 556:Middlewares/ST/STM32_USB_Device_Library/Core/Src/usbd_core.c ****     default:
 557:Middlewares/ST/STM32_USB_Device_Library/Core/Src/usbd_core.c ****       ret = USBD_LL_StallEP(pdev, (pdev->request.bmRequest & 0x80U));
 558:Middlewares/ST/STM32_USB_Device_Library/Core/Src/usbd_core.c ****       break;
ARM GAS  C:\Users\User\AppData\Local\Temp\cc8N179E.s 			page 19


 559:Middlewares/ST/STM32_USB_Device_Library/Core/Src/usbd_core.c ****   }
 560:Middlewares/ST/STM32_USB_Device_Library/Core/Src/usbd_core.c **** 
 561:Middlewares/ST/STM32_USB_Device_Library/Core/Src/usbd_core.c ****   return ret;
 479              		.loc 1 561 3 view .LVU137
 562:Middlewares/ST/STM32_USB_Device_Library/Core/Src/usbd_core.c **** }
 480              		.loc 1 562 1 is_stmt 0 view .LVU138
 481 0036 38BD     		pop	{r3, r4, r5, pc}
 482              	.LVL37:
 483              	.L33:
 549:Middlewares/ST/STM32_USB_Device_Library/Core/Src/usbd_core.c ****       break;
 484              		.loc 1 549 7 is_stmt 1 view .LVU139
 549:Middlewares/ST/STM32_USB_Device_Library/Core/Src/usbd_core.c ****       break;
 485              		.loc 1 549 13 is_stmt 0 view .LVU140
 486 0038 2946     		mov	r1, r5
 487 003a 2046     		mov	r0, r4
 488 003c FFF7FEFF 		bl	USBD_StdItfReq
 489              	.LVL38:
 550:Middlewares/ST/STM32_USB_Device_Library/Core/Src/usbd_core.c **** 
 490              		.loc 1 550 7 is_stmt 1 view .LVU141
 491 0040 F9E7     		b	.L36
 492              	.LVL39:
 493              	.L34:
 553:Middlewares/ST/STM32_USB_Device_Library/Core/Src/usbd_core.c ****       break;
 494              		.loc 1 553 7 view .LVU142
 553:Middlewares/ST/STM32_USB_Device_Library/Core/Src/usbd_core.c ****       break;
 495              		.loc 1 553 13 is_stmt 0 view .LVU143
 496 0042 2946     		mov	r1, r5
 497 0044 2046     		mov	r0, r4
 498 0046 FFF7FEFF 		bl	USBD_StdEPReq
 499              	.LVL40:
 554:Middlewares/ST/STM32_USB_Device_Library/Core/Src/usbd_core.c **** 
 500              		.loc 1 554 7 is_stmt 1 view .LVU144
 501 004a F4E7     		b	.L36
 502              	.LVL41:
 503              	.L35:
 557:Middlewares/ST/STM32_USB_Device_Library/Core/Src/usbd_core.c ****       break;
 504              		.loc 1 557 7 view .LVU145
 557:Middlewares/ST/STM32_USB_Device_Library/Core/Src/usbd_core.c ****       break;
 505              		.loc 1 557 13 is_stmt 0 view .LVU146
 506 004c 01F08001 		and	r1, r1, #128
 507 0050 2046     		mov	r0, r4
 508 0052 FFF7FEFF 		bl	USBD_LL_StallEP
 509              	.LVL42:
 558:Middlewares/ST/STM32_USB_Device_Library/Core/Src/usbd_core.c ****   }
 510              		.loc 1 558 7 is_stmt 1 view .LVU147
 511 0056 EEE7     		b	.L36
 512              		.cfi_endproc
 513              	.LFE142:
 515              		.section	.text.USBD_LL_Reset,"ax",%progbits
 516              		.align	1
 517              		.global	USBD_LL_Reset
 518              		.syntax unified
 519              		.thumb
 520              		.thumb_func
 522              	USBD_LL_Reset:
 523              	.LVL43:
 524              	.LFB145:
ARM GAS  C:\Users\User\AppData\Local\Temp\cc8N179E.s 			page 20


 563:Middlewares/ST/STM32_USB_Device_Library/Core/Src/usbd_core.c **** 
 564:Middlewares/ST/STM32_USB_Device_Library/Core/Src/usbd_core.c **** /**
 565:Middlewares/ST/STM32_USB_Device_Library/Core/Src/usbd_core.c ****   * @brief  USBD_LL_DataOutStage
 566:Middlewares/ST/STM32_USB_Device_Library/Core/Src/usbd_core.c ****   *         Handle data OUT stage
 567:Middlewares/ST/STM32_USB_Device_Library/Core/Src/usbd_core.c ****   * @param  pdev: device instance
 568:Middlewares/ST/STM32_USB_Device_Library/Core/Src/usbd_core.c ****   * @param  epnum: endpoint index
 569:Middlewares/ST/STM32_USB_Device_Library/Core/Src/usbd_core.c ****   * @param  pdata: data pointer
 570:Middlewares/ST/STM32_USB_Device_Library/Core/Src/usbd_core.c ****   * @retval status
 571:Middlewares/ST/STM32_USB_Device_Library/Core/Src/usbd_core.c ****   */
 572:Middlewares/ST/STM32_USB_Device_Library/Core/Src/usbd_core.c **** USBD_StatusTypeDef USBD_LL_DataOutStage(USBD_HandleTypeDef *pdev,
 573:Middlewares/ST/STM32_USB_Device_Library/Core/Src/usbd_core.c ****                                         uint8_t epnum, uint8_t *pdata)
 574:Middlewares/ST/STM32_USB_Device_Library/Core/Src/usbd_core.c **** {
 575:Middlewares/ST/STM32_USB_Device_Library/Core/Src/usbd_core.c ****   USBD_EndpointTypeDef *pep;
 576:Middlewares/ST/STM32_USB_Device_Library/Core/Src/usbd_core.c ****   USBD_StatusTypeDef ret = USBD_OK;
 577:Middlewares/ST/STM32_USB_Device_Library/Core/Src/usbd_core.c ****   uint8_t idx;
 578:Middlewares/ST/STM32_USB_Device_Library/Core/Src/usbd_core.c **** 
 579:Middlewares/ST/STM32_USB_Device_Library/Core/Src/usbd_core.c ****   if (epnum == 0U)
 580:Middlewares/ST/STM32_USB_Device_Library/Core/Src/usbd_core.c ****   {
 581:Middlewares/ST/STM32_USB_Device_Library/Core/Src/usbd_core.c ****     pep = &pdev->ep_out[0];
 582:Middlewares/ST/STM32_USB_Device_Library/Core/Src/usbd_core.c **** 
 583:Middlewares/ST/STM32_USB_Device_Library/Core/Src/usbd_core.c ****     if (pdev->ep0_state == USBD_EP0_DATA_OUT)
 584:Middlewares/ST/STM32_USB_Device_Library/Core/Src/usbd_core.c ****     {
 585:Middlewares/ST/STM32_USB_Device_Library/Core/Src/usbd_core.c ****       if (pep->rem_length > pep->maxpacket)
 586:Middlewares/ST/STM32_USB_Device_Library/Core/Src/usbd_core.c ****       {
 587:Middlewares/ST/STM32_USB_Device_Library/Core/Src/usbd_core.c ****         pep->rem_length -= pep->maxpacket;
 588:Middlewares/ST/STM32_USB_Device_Library/Core/Src/usbd_core.c **** 
 589:Middlewares/ST/STM32_USB_Device_Library/Core/Src/usbd_core.c ****         (void)USBD_CtlContinueRx(pdev, pdata, MIN(pep->rem_length, pep->maxpacket));
 590:Middlewares/ST/STM32_USB_Device_Library/Core/Src/usbd_core.c ****       }
 591:Middlewares/ST/STM32_USB_Device_Library/Core/Src/usbd_core.c ****       else
 592:Middlewares/ST/STM32_USB_Device_Library/Core/Src/usbd_core.c ****       {
 593:Middlewares/ST/STM32_USB_Device_Library/Core/Src/usbd_core.c ****         /* Find the class ID relative to the current request */
 594:Middlewares/ST/STM32_USB_Device_Library/Core/Src/usbd_core.c ****         switch (pdev->request.bmRequest & 0x1FU)
 595:Middlewares/ST/STM32_USB_Device_Library/Core/Src/usbd_core.c ****         {
 596:Middlewares/ST/STM32_USB_Device_Library/Core/Src/usbd_core.c ****           case USB_REQ_RECIPIENT_DEVICE:
 597:Middlewares/ST/STM32_USB_Device_Library/Core/Src/usbd_core.c ****             /* Device requests must be managed by the first instantiated class
 598:Middlewares/ST/STM32_USB_Device_Library/Core/Src/usbd_core.c ****                (or duplicated by all classes for simplicity) */
 599:Middlewares/ST/STM32_USB_Device_Library/Core/Src/usbd_core.c ****             idx = 0U;
 600:Middlewares/ST/STM32_USB_Device_Library/Core/Src/usbd_core.c ****             break;
 601:Middlewares/ST/STM32_USB_Device_Library/Core/Src/usbd_core.c **** 
 602:Middlewares/ST/STM32_USB_Device_Library/Core/Src/usbd_core.c ****           case USB_REQ_RECIPIENT_INTERFACE:
 603:Middlewares/ST/STM32_USB_Device_Library/Core/Src/usbd_core.c ****             idx = USBD_CoreFindIF(pdev, LOBYTE(pdev->request.wIndex));
 604:Middlewares/ST/STM32_USB_Device_Library/Core/Src/usbd_core.c ****             break;
 605:Middlewares/ST/STM32_USB_Device_Library/Core/Src/usbd_core.c **** 
 606:Middlewares/ST/STM32_USB_Device_Library/Core/Src/usbd_core.c ****           case USB_REQ_RECIPIENT_ENDPOINT:
 607:Middlewares/ST/STM32_USB_Device_Library/Core/Src/usbd_core.c ****             idx = USBD_CoreFindEP(pdev, LOBYTE(pdev->request.wIndex));
 608:Middlewares/ST/STM32_USB_Device_Library/Core/Src/usbd_core.c ****             break;
 609:Middlewares/ST/STM32_USB_Device_Library/Core/Src/usbd_core.c **** 
 610:Middlewares/ST/STM32_USB_Device_Library/Core/Src/usbd_core.c ****           default:
 611:Middlewares/ST/STM32_USB_Device_Library/Core/Src/usbd_core.c ****             /* Back to the first class in case of doubt */
 612:Middlewares/ST/STM32_USB_Device_Library/Core/Src/usbd_core.c ****             idx = 0U;
 613:Middlewares/ST/STM32_USB_Device_Library/Core/Src/usbd_core.c ****             break;
 614:Middlewares/ST/STM32_USB_Device_Library/Core/Src/usbd_core.c ****         }
 615:Middlewares/ST/STM32_USB_Device_Library/Core/Src/usbd_core.c **** 
 616:Middlewares/ST/STM32_USB_Device_Library/Core/Src/usbd_core.c ****         if (idx < USBD_MAX_SUPPORTED_CLASS)
 617:Middlewares/ST/STM32_USB_Device_Library/Core/Src/usbd_core.c ****         {
 618:Middlewares/ST/STM32_USB_Device_Library/Core/Src/usbd_core.c ****           /* Setup the class ID and route the request to the relative class function */
 619:Middlewares/ST/STM32_USB_Device_Library/Core/Src/usbd_core.c ****           if (pdev->dev_state == USBD_STATE_CONFIGURED)
ARM GAS  C:\Users\User\AppData\Local\Temp\cc8N179E.s 			page 21


 620:Middlewares/ST/STM32_USB_Device_Library/Core/Src/usbd_core.c ****           {
 621:Middlewares/ST/STM32_USB_Device_Library/Core/Src/usbd_core.c ****             if (pdev->pClass[idx]->EP0_RxReady != NULL)
 622:Middlewares/ST/STM32_USB_Device_Library/Core/Src/usbd_core.c ****             {
 623:Middlewares/ST/STM32_USB_Device_Library/Core/Src/usbd_core.c ****               pdev->classId = idx;
 624:Middlewares/ST/STM32_USB_Device_Library/Core/Src/usbd_core.c ****               pdev->pClass[idx]->EP0_RxReady(pdev);
 625:Middlewares/ST/STM32_USB_Device_Library/Core/Src/usbd_core.c ****             }
 626:Middlewares/ST/STM32_USB_Device_Library/Core/Src/usbd_core.c ****           }
 627:Middlewares/ST/STM32_USB_Device_Library/Core/Src/usbd_core.c ****         }
 628:Middlewares/ST/STM32_USB_Device_Library/Core/Src/usbd_core.c **** 
 629:Middlewares/ST/STM32_USB_Device_Library/Core/Src/usbd_core.c ****         (void)USBD_CtlSendStatus(pdev);
 630:Middlewares/ST/STM32_USB_Device_Library/Core/Src/usbd_core.c ****       }
 631:Middlewares/ST/STM32_USB_Device_Library/Core/Src/usbd_core.c ****     }
 632:Middlewares/ST/STM32_USB_Device_Library/Core/Src/usbd_core.c ****     else
 633:Middlewares/ST/STM32_USB_Device_Library/Core/Src/usbd_core.c ****     {
 634:Middlewares/ST/STM32_USB_Device_Library/Core/Src/usbd_core.c **** #if 0
 635:Middlewares/ST/STM32_USB_Device_Library/Core/Src/usbd_core.c ****       if (pdev->ep0_state == USBD_EP0_STATUS_OUT)
 636:Middlewares/ST/STM32_USB_Device_Library/Core/Src/usbd_core.c ****       {
 637:Middlewares/ST/STM32_USB_Device_Library/Core/Src/usbd_core.c ****         /*
 638:Middlewares/ST/STM32_USB_Device_Library/Core/Src/usbd_core.c ****           * STATUS PHASE completed, update ep0_state to idle
 639:Middlewares/ST/STM32_USB_Device_Library/Core/Src/usbd_core.c ****           */
 640:Middlewares/ST/STM32_USB_Device_Library/Core/Src/usbd_core.c ****         pdev->ep0_state = USBD_EP0_IDLE;
 641:Middlewares/ST/STM32_USB_Device_Library/Core/Src/usbd_core.c ****         (void)USBD_LL_StallEP(pdev, 0U);
 642:Middlewares/ST/STM32_USB_Device_Library/Core/Src/usbd_core.c ****       }
 643:Middlewares/ST/STM32_USB_Device_Library/Core/Src/usbd_core.c **** #endif
 644:Middlewares/ST/STM32_USB_Device_Library/Core/Src/usbd_core.c ****     }
 645:Middlewares/ST/STM32_USB_Device_Library/Core/Src/usbd_core.c ****   }
 646:Middlewares/ST/STM32_USB_Device_Library/Core/Src/usbd_core.c ****   else
 647:Middlewares/ST/STM32_USB_Device_Library/Core/Src/usbd_core.c ****   {
 648:Middlewares/ST/STM32_USB_Device_Library/Core/Src/usbd_core.c ****     /* Get the class index relative to this interface */
 649:Middlewares/ST/STM32_USB_Device_Library/Core/Src/usbd_core.c ****     idx = USBD_CoreFindEP(pdev, (epnum & 0x7FU));
 650:Middlewares/ST/STM32_USB_Device_Library/Core/Src/usbd_core.c **** 
 651:Middlewares/ST/STM32_USB_Device_Library/Core/Src/usbd_core.c ****     if (((uint16_t)idx != 0xFFU) && (idx < USBD_MAX_SUPPORTED_CLASS))
 652:Middlewares/ST/STM32_USB_Device_Library/Core/Src/usbd_core.c ****     {
 653:Middlewares/ST/STM32_USB_Device_Library/Core/Src/usbd_core.c ****       /* Call the class data out function to manage the request */
 654:Middlewares/ST/STM32_USB_Device_Library/Core/Src/usbd_core.c ****       if (pdev->dev_state == USBD_STATE_CONFIGURED)
 655:Middlewares/ST/STM32_USB_Device_Library/Core/Src/usbd_core.c ****       {
 656:Middlewares/ST/STM32_USB_Device_Library/Core/Src/usbd_core.c ****         if (pdev->pClass[idx]->DataOut != NULL)
 657:Middlewares/ST/STM32_USB_Device_Library/Core/Src/usbd_core.c ****         {
 658:Middlewares/ST/STM32_USB_Device_Library/Core/Src/usbd_core.c ****           pdev->classId = idx;
 659:Middlewares/ST/STM32_USB_Device_Library/Core/Src/usbd_core.c ****           ret = (USBD_StatusTypeDef)pdev->pClass[idx]->DataOut(pdev, epnum);
 660:Middlewares/ST/STM32_USB_Device_Library/Core/Src/usbd_core.c ****         }
 661:Middlewares/ST/STM32_USB_Device_Library/Core/Src/usbd_core.c ****       }
 662:Middlewares/ST/STM32_USB_Device_Library/Core/Src/usbd_core.c ****       if (ret != USBD_OK)
 663:Middlewares/ST/STM32_USB_Device_Library/Core/Src/usbd_core.c ****       {
 664:Middlewares/ST/STM32_USB_Device_Library/Core/Src/usbd_core.c ****         return ret;
 665:Middlewares/ST/STM32_USB_Device_Library/Core/Src/usbd_core.c ****       }
 666:Middlewares/ST/STM32_USB_Device_Library/Core/Src/usbd_core.c ****     }
 667:Middlewares/ST/STM32_USB_Device_Library/Core/Src/usbd_core.c ****   }
 668:Middlewares/ST/STM32_USB_Device_Library/Core/Src/usbd_core.c **** 
 669:Middlewares/ST/STM32_USB_Device_Library/Core/Src/usbd_core.c ****   return USBD_OK;
 670:Middlewares/ST/STM32_USB_Device_Library/Core/Src/usbd_core.c **** }
 671:Middlewares/ST/STM32_USB_Device_Library/Core/Src/usbd_core.c **** 
 672:Middlewares/ST/STM32_USB_Device_Library/Core/Src/usbd_core.c **** /**
 673:Middlewares/ST/STM32_USB_Device_Library/Core/Src/usbd_core.c ****   * @brief  USBD_LL_DataInStage
 674:Middlewares/ST/STM32_USB_Device_Library/Core/Src/usbd_core.c ****   *         Handle data in stage
 675:Middlewares/ST/STM32_USB_Device_Library/Core/Src/usbd_core.c ****   * @param  pdev: device instance
 676:Middlewares/ST/STM32_USB_Device_Library/Core/Src/usbd_core.c ****   * @param  epnum: endpoint index
ARM GAS  C:\Users\User\AppData\Local\Temp\cc8N179E.s 			page 22


 677:Middlewares/ST/STM32_USB_Device_Library/Core/Src/usbd_core.c ****   * @retval status
 678:Middlewares/ST/STM32_USB_Device_Library/Core/Src/usbd_core.c ****   */
 679:Middlewares/ST/STM32_USB_Device_Library/Core/Src/usbd_core.c **** USBD_StatusTypeDef USBD_LL_DataInStage(USBD_HandleTypeDef *pdev,
 680:Middlewares/ST/STM32_USB_Device_Library/Core/Src/usbd_core.c ****                                        uint8_t epnum, uint8_t *pdata)
 681:Middlewares/ST/STM32_USB_Device_Library/Core/Src/usbd_core.c **** {
 682:Middlewares/ST/STM32_USB_Device_Library/Core/Src/usbd_core.c ****   USBD_EndpointTypeDef *pep;
 683:Middlewares/ST/STM32_USB_Device_Library/Core/Src/usbd_core.c ****   USBD_StatusTypeDef ret;
 684:Middlewares/ST/STM32_USB_Device_Library/Core/Src/usbd_core.c ****   uint8_t idx;
 685:Middlewares/ST/STM32_USB_Device_Library/Core/Src/usbd_core.c **** 
 686:Middlewares/ST/STM32_USB_Device_Library/Core/Src/usbd_core.c ****   if (epnum == 0U)
 687:Middlewares/ST/STM32_USB_Device_Library/Core/Src/usbd_core.c ****   {
 688:Middlewares/ST/STM32_USB_Device_Library/Core/Src/usbd_core.c ****     pep = &pdev->ep_in[0];
 689:Middlewares/ST/STM32_USB_Device_Library/Core/Src/usbd_core.c **** 
 690:Middlewares/ST/STM32_USB_Device_Library/Core/Src/usbd_core.c ****     if (pdev->ep0_state == USBD_EP0_DATA_IN)
 691:Middlewares/ST/STM32_USB_Device_Library/Core/Src/usbd_core.c ****     {
 692:Middlewares/ST/STM32_USB_Device_Library/Core/Src/usbd_core.c ****       if (pep->rem_length > pep->maxpacket)
 693:Middlewares/ST/STM32_USB_Device_Library/Core/Src/usbd_core.c ****       {
 694:Middlewares/ST/STM32_USB_Device_Library/Core/Src/usbd_core.c ****         pep->rem_length -= pep->maxpacket;
 695:Middlewares/ST/STM32_USB_Device_Library/Core/Src/usbd_core.c **** 
 696:Middlewares/ST/STM32_USB_Device_Library/Core/Src/usbd_core.c ****         (void)USBD_CtlContinueSendData(pdev, pdata, pep->rem_length);
 697:Middlewares/ST/STM32_USB_Device_Library/Core/Src/usbd_core.c **** 
 698:Middlewares/ST/STM32_USB_Device_Library/Core/Src/usbd_core.c ****         /* Prepare endpoint for premature end of transfer */
 699:Middlewares/ST/STM32_USB_Device_Library/Core/Src/usbd_core.c ****         (void)USBD_LL_PrepareReceive(pdev, 0U, NULL, 0U);
 700:Middlewares/ST/STM32_USB_Device_Library/Core/Src/usbd_core.c ****       }
 701:Middlewares/ST/STM32_USB_Device_Library/Core/Src/usbd_core.c ****       else
 702:Middlewares/ST/STM32_USB_Device_Library/Core/Src/usbd_core.c ****       {
 703:Middlewares/ST/STM32_USB_Device_Library/Core/Src/usbd_core.c ****         /* last packet is MPS multiple, so send ZLP packet */
 704:Middlewares/ST/STM32_USB_Device_Library/Core/Src/usbd_core.c ****         if ((pep->maxpacket == pep->rem_length) &&
 705:Middlewares/ST/STM32_USB_Device_Library/Core/Src/usbd_core.c ****             (pep->total_length >= pep->maxpacket) &&
 706:Middlewares/ST/STM32_USB_Device_Library/Core/Src/usbd_core.c ****             (pep->total_length < pdev->ep0_data_len))
 707:Middlewares/ST/STM32_USB_Device_Library/Core/Src/usbd_core.c ****         {
 708:Middlewares/ST/STM32_USB_Device_Library/Core/Src/usbd_core.c ****           (void)USBD_CtlContinueSendData(pdev, NULL, 0U);
 709:Middlewares/ST/STM32_USB_Device_Library/Core/Src/usbd_core.c ****           pdev->ep0_data_len = 0U;
 710:Middlewares/ST/STM32_USB_Device_Library/Core/Src/usbd_core.c **** 
 711:Middlewares/ST/STM32_USB_Device_Library/Core/Src/usbd_core.c ****           /* Prepare endpoint for premature end of transfer */
 712:Middlewares/ST/STM32_USB_Device_Library/Core/Src/usbd_core.c ****           (void)USBD_LL_PrepareReceive(pdev, 0U, NULL, 0U);
 713:Middlewares/ST/STM32_USB_Device_Library/Core/Src/usbd_core.c ****         }
 714:Middlewares/ST/STM32_USB_Device_Library/Core/Src/usbd_core.c ****         else
 715:Middlewares/ST/STM32_USB_Device_Library/Core/Src/usbd_core.c ****         {
 716:Middlewares/ST/STM32_USB_Device_Library/Core/Src/usbd_core.c ****           if (pdev->dev_state == USBD_STATE_CONFIGURED)
 717:Middlewares/ST/STM32_USB_Device_Library/Core/Src/usbd_core.c ****           {
 718:Middlewares/ST/STM32_USB_Device_Library/Core/Src/usbd_core.c ****             if (pdev->pClass[0]->EP0_TxSent != NULL)
 719:Middlewares/ST/STM32_USB_Device_Library/Core/Src/usbd_core.c ****             {
 720:Middlewares/ST/STM32_USB_Device_Library/Core/Src/usbd_core.c ****               pdev->classId = 0U;
 721:Middlewares/ST/STM32_USB_Device_Library/Core/Src/usbd_core.c ****               pdev->pClass[0]->EP0_TxSent(pdev);
 722:Middlewares/ST/STM32_USB_Device_Library/Core/Src/usbd_core.c ****             }
 723:Middlewares/ST/STM32_USB_Device_Library/Core/Src/usbd_core.c ****           }
 724:Middlewares/ST/STM32_USB_Device_Library/Core/Src/usbd_core.c ****           (void)USBD_LL_StallEP(pdev, 0x80U);
 725:Middlewares/ST/STM32_USB_Device_Library/Core/Src/usbd_core.c ****           (void)USBD_CtlReceiveStatus(pdev);
 726:Middlewares/ST/STM32_USB_Device_Library/Core/Src/usbd_core.c ****         }
 727:Middlewares/ST/STM32_USB_Device_Library/Core/Src/usbd_core.c ****       }
 728:Middlewares/ST/STM32_USB_Device_Library/Core/Src/usbd_core.c ****     }
 729:Middlewares/ST/STM32_USB_Device_Library/Core/Src/usbd_core.c ****     else
 730:Middlewares/ST/STM32_USB_Device_Library/Core/Src/usbd_core.c ****     {
 731:Middlewares/ST/STM32_USB_Device_Library/Core/Src/usbd_core.c **** #if 0
 732:Middlewares/ST/STM32_USB_Device_Library/Core/Src/usbd_core.c ****       if ((pdev->ep0_state == USBD_EP0_STATUS_IN) ||
 733:Middlewares/ST/STM32_USB_Device_Library/Core/Src/usbd_core.c ****           (pdev->ep0_state == USBD_EP0_IDLE))
ARM GAS  C:\Users\User\AppData\Local\Temp\cc8N179E.s 			page 23


 734:Middlewares/ST/STM32_USB_Device_Library/Core/Src/usbd_core.c ****       {
 735:Middlewares/ST/STM32_USB_Device_Library/Core/Src/usbd_core.c ****         (void)USBD_LL_StallEP(pdev, 0x80U);
 736:Middlewares/ST/STM32_USB_Device_Library/Core/Src/usbd_core.c ****       }
 737:Middlewares/ST/STM32_USB_Device_Library/Core/Src/usbd_core.c **** #endif
 738:Middlewares/ST/STM32_USB_Device_Library/Core/Src/usbd_core.c ****     }
 739:Middlewares/ST/STM32_USB_Device_Library/Core/Src/usbd_core.c **** 
 740:Middlewares/ST/STM32_USB_Device_Library/Core/Src/usbd_core.c ****     if (pdev->dev_test_mode != 0U)
 741:Middlewares/ST/STM32_USB_Device_Library/Core/Src/usbd_core.c ****     {
 742:Middlewares/ST/STM32_USB_Device_Library/Core/Src/usbd_core.c ****       (void)USBD_RunTestMode(pdev);
 743:Middlewares/ST/STM32_USB_Device_Library/Core/Src/usbd_core.c ****       pdev->dev_test_mode = 0U;
 744:Middlewares/ST/STM32_USB_Device_Library/Core/Src/usbd_core.c ****     }
 745:Middlewares/ST/STM32_USB_Device_Library/Core/Src/usbd_core.c ****   }
 746:Middlewares/ST/STM32_USB_Device_Library/Core/Src/usbd_core.c ****   else
 747:Middlewares/ST/STM32_USB_Device_Library/Core/Src/usbd_core.c ****   {
 748:Middlewares/ST/STM32_USB_Device_Library/Core/Src/usbd_core.c ****     /* Get the class index relative to this interface */
 749:Middlewares/ST/STM32_USB_Device_Library/Core/Src/usbd_core.c ****     idx = USBD_CoreFindEP(pdev, ((uint8_t)epnum | 0x80U));
 750:Middlewares/ST/STM32_USB_Device_Library/Core/Src/usbd_core.c **** 
 751:Middlewares/ST/STM32_USB_Device_Library/Core/Src/usbd_core.c ****     if (((uint16_t)idx != 0xFFU) && (idx < USBD_MAX_SUPPORTED_CLASS))
 752:Middlewares/ST/STM32_USB_Device_Library/Core/Src/usbd_core.c ****     {
 753:Middlewares/ST/STM32_USB_Device_Library/Core/Src/usbd_core.c ****       /* Call the class data out function to manage the request */
 754:Middlewares/ST/STM32_USB_Device_Library/Core/Src/usbd_core.c ****       if (pdev->dev_state == USBD_STATE_CONFIGURED)
 755:Middlewares/ST/STM32_USB_Device_Library/Core/Src/usbd_core.c ****       {
 756:Middlewares/ST/STM32_USB_Device_Library/Core/Src/usbd_core.c ****         if (pdev->pClass[idx]->DataIn != NULL)
 757:Middlewares/ST/STM32_USB_Device_Library/Core/Src/usbd_core.c ****         {
 758:Middlewares/ST/STM32_USB_Device_Library/Core/Src/usbd_core.c ****           pdev->classId = idx;
 759:Middlewares/ST/STM32_USB_Device_Library/Core/Src/usbd_core.c ****           ret = (USBD_StatusTypeDef)pdev->pClass[idx]->DataIn(pdev, epnum);
 760:Middlewares/ST/STM32_USB_Device_Library/Core/Src/usbd_core.c **** 
 761:Middlewares/ST/STM32_USB_Device_Library/Core/Src/usbd_core.c ****           if (ret != USBD_OK)
 762:Middlewares/ST/STM32_USB_Device_Library/Core/Src/usbd_core.c ****           {
 763:Middlewares/ST/STM32_USB_Device_Library/Core/Src/usbd_core.c ****             return ret;
 764:Middlewares/ST/STM32_USB_Device_Library/Core/Src/usbd_core.c ****           }
 765:Middlewares/ST/STM32_USB_Device_Library/Core/Src/usbd_core.c ****         }
 766:Middlewares/ST/STM32_USB_Device_Library/Core/Src/usbd_core.c ****       }
 767:Middlewares/ST/STM32_USB_Device_Library/Core/Src/usbd_core.c ****     }
 768:Middlewares/ST/STM32_USB_Device_Library/Core/Src/usbd_core.c ****   }
 769:Middlewares/ST/STM32_USB_Device_Library/Core/Src/usbd_core.c **** 
 770:Middlewares/ST/STM32_USB_Device_Library/Core/Src/usbd_core.c ****   return USBD_OK;
 771:Middlewares/ST/STM32_USB_Device_Library/Core/Src/usbd_core.c **** }
 772:Middlewares/ST/STM32_USB_Device_Library/Core/Src/usbd_core.c **** 
 773:Middlewares/ST/STM32_USB_Device_Library/Core/Src/usbd_core.c **** /**
 774:Middlewares/ST/STM32_USB_Device_Library/Core/Src/usbd_core.c ****   * @brief  USBD_LL_Reset
 775:Middlewares/ST/STM32_USB_Device_Library/Core/Src/usbd_core.c ****   *         Handle Reset event
 776:Middlewares/ST/STM32_USB_Device_Library/Core/Src/usbd_core.c ****   * @param  pdev: device instance
 777:Middlewares/ST/STM32_USB_Device_Library/Core/Src/usbd_core.c ****   * @retval status
 778:Middlewares/ST/STM32_USB_Device_Library/Core/Src/usbd_core.c ****   */
 779:Middlewares/ST/STM32_USB_Device_Library/Core/Src/usbd_core.c **** 
 780:Middlewares/ST/STM32_USB_Device_Library/Core/Src/usbd_core.c **** USBD_StatusTypeDef USBD_LL_Reset(USBD_HandleTypeDef *pdev)
 781:Middlewares/ST/STM32_USB_Device_Library/Core/Src/usbd_core.c **** {
 525              		.loc 1 781 1 view -0
 526              		.cfi_startproc
 527              		@ args = 0, pretend = 0, frame = 0
 528              		@ frame_needed = 0, uses_anonymous_args = 0
 529              		.loc 1 781 1 is_stmt 0 view .LVU149
 530 0000 F8B5     		push	{r3, r4, r5, r6, r7, lr}
 531              		.cfi_def_cfa_offset 24
 532              		.cfi_offset 3, -24
 533              		.cfi_offset 4, -20
ARM GAS  C:\Users\User\AppData\Local\Temp\cc8N179E.s 			page 24


 534              		.cfi_offset 5, -16
 535              		.cfi_offset 6, -12
 536              		.cfi_offset 7, -8
 537              		.cfi_offset 14, -4
 538 0002 0446     		mov	r4, r0
 782:Middlewares/ST/STM32_USB_Device_Library/Core/Src/usbd_core.c ****   USBD_StatusTypeDef ret = USBD_OK;
 539              		.loc 1 782 3 is_stmt 1 view .LVU150
 540              	.LVL44:
 783:Middlewares/ST/STM32_USB_Device_Library/Core/Src/usbd_core.c **** 
 784:Middlewares/ST/STM32_USB_Device_Library/Core/Src/usbd_core.c ****   /* Upon Reset call user call back */
 785:Middlewares/ST/STM32_USB_Device_Library/Core/Src/usbd_core.c ****   pdev->dev_state = USBD_STATE_DEFAULT;
 541              		.loc 1 785 3 view .LVU151
 542              		.loc 1 785 19 is_stmt 0 view .LVU152
 543 0004 0123     		movs	r3, #1
 544 0006 80F89C32 		strb	r3, [r0, #668]
 786:Middlewares/ST/STM32_USB_Device_Library/Core/Src/usbd_core.c ****   pdev->ep0_state = USBD_EP0_IDLE;
 545              		.loc 1 786 3 is_stmt 1 view .LVU153
 546              		.loc 1 786 19 is_stmt 0 view .LVU154
 547 000a 0023     		movs	r3, #0
 548 000c C0F89432 		str	r3, [r0, #660]
 787:Middlewares/ST/STM32_USB_Device_Library/Core/Src/usbd_core.c ****   pdev->dev_config = 0U;
 549              		.loc 1 787 3 is_stmt 1 view .LVU155
 550              		.loc 1 787 20 is_stmt 0 view .LVU156
 551 0010 4360     		str	r3, [r0, #4]
 788:Middlewares/ST/STM32_USB_Device_Library/Core/Src/usbd_core.c ****   pdev->dev_remote_wakeup = 0U;
 552              		.loc 1 788 3 is_stmt 1 view .LVU157
 553              		.loc 1 788 27 is_stmt 0 view .LVU158
 554 0012 C0F8A432 		str	r3, [r0, #676]
 789:Middlewares/ST/STM32_USB_Device_Library/Core/Src/usbd_core.c ****   pdev->dev_test_mode = 0U;
 555              		.loc 1 789 3 is_stmt 1 view .LVU159
 556              		.loc 1 789 23 is_stmt 0 view .LVU160
 557 0016 80F8A032 		strb	r3, [r0, #672]
 790:Middlewares/ST/STM32_USB_Device_Library/Core/Src/usbd_core.c **** 
 791:Middlewares/ST/STM32_USB_Device_Library/Core/Src/usbd_core.c **** #ifdef USE_USBD_COMPOSITE
 792:Middlewares/ST/STM32_USB_Device_Library/Core/Src/usbd_core.c ****   /* Parse the table of classes in use */
 793:Middlewares/ST/STM32_USB_Device_Library/Core/Src/usbd_core.c ****   for (uint32_t i = 0U; i < USBD_MAX_SUPPORTED_CLASS; i++)
 794:Middlewares/ST/STM32_USB_Device_Library/Core/Src/usbd_core.c ****   {
 795:Middlewares/ST/STM32_USB_Device_Library/Core/Src/usbd_core.c ****     /* Check if current class is in use */
 796:Middlewares/ST/STM32_USB_Device_Library/Core/Src/usbd_core.c ****     if ((pdev->tclasslist[i].Active) == 1U)
 797:Middlewares/ST/STM32_USB_Device_Library/Core/Src/usbd_core.c ****     {
 798:Middlewares/ST/STM32_USB_Device_Library/Core/Src/usbd_core.c ****       if (pdev->pClass[i] != NULL)
 799:Middlewares/ST/STM32_USB_Device_Library/Core/Src/usbd_core.c ****       {
 800:Middlewares/ST/STM32_USB_Device_Library/Core/Src/usbd_core.c ****         pdev->classId = i;
 801:Middlewares/ST/STM32_USB_Device_Library/Core/Src/usbd_core.c ****         /* Clear configuration  and De-initialize the Class process*/
 802:Middlewares/ST/STM32_USB_Device_Library/Core/Src/usbd_core.c **** 
 803:Middlewares/ST/STM32_USB_Device_Library/Core/Src/usbd_core.c ****         if (pdev->pClass[i]->DeInit != NULL)
 804:Middlewares/ST/STM32_USB_Device_Library/Core/Src/usbd_core.c ****         {
 805:Middlewares/ST/STM32_USB_Device_Library/Core/Src/usbd_core.c ****           if (pdev->pClass[i]->DeInit(pdev, (uint8_t)pdev->dev_config) != USBD_OK)
 806:Middlewares/ST/STM32_USB_Device_Library/Core/Src/usbd_core.c ****           {
 807:Middlewares/ST/STM32_USB_Device_Library/Core/Src/usbd_core.c ****             ret = USBD_FAIL;
 808:Middlewares/ST/STM32_USB_Device_Library/Core/Src/usbd_core.c ****           }
 809:Middlewares/ST/STM32_USB_Device_Library/Core/Src/usbd_core.c ****         }
 810:Middlewares/ST/STM32_USB_Device_Library/Core/Src/usbd_core.c ****       }
 811:Middlewares/ST/STM32_USB_Device_Library/Core/Src/usbd_core.c ****     }
 812:Middlewares/ST/STM32_USB_Device_Library/Core/Src/usbd_core.c ****   }
 813:Middlewares/ST/STM32_USB_Device_Library/Core/Src/usbd_core.c **** #else
 814:Middlewares/ST/STM32_USB_Device_Library/Core/Src/usbd_core.c **** 
ARM GAS  C:\Users\User\AppData\Local\Temp\cc8N179E.s 			page 25


 815:Middlewares/ST/STM32_USB_Device_Library/Core/Src/usbd_core.c ****   if (pdev->pClass[0] != NULL)
 558              		.loc 1 815 3 is_stmt 1 view .LVU161
 559              		.loc 1 815 19 is_stmt 0 view .LVU162
 560 001a D0F8B832 		ldr	r3, [r0, #696]
 561              		.loc 1 815 6 view .LVU163
 562 001e DBB1     		cbz	r3, .L40
 816:Middlewares/ST/STM32_USB_Device_Library/Core/Src/usbd_core.c ****   {
 817:Middlewares/ST/STM32_USB_Device_Library/Core/Src/usbd_core.c ****     if (pdev->pClass[0]->DeInit != NULL)
 563              		.loc 1 817 5 is_stmt 1 view .LVU164
 564              		.loc 1 817 24 is_stmt 0 view .LVU165
 565 0020 5B68     		ldr	r3, [r3, #4]
 566              		.loc 1 817 8 view .LVU166
 567 0022 DBB1     		cbz	r3, .L41
 818:Middlewares/ST/STM32_USB_Device_Library/Core/Src/usbd_core.c ****     {
 819:Middlewares/ST/STM32_USB_Device_Library/Core/Src/usbd_core.c ****       if (pdev->pClass[0]->DeInit(pdev, (uint8_t)pdev->dev_config) != USBD_OK)
 568              		.loc 1 819 7 is_stmt 1 view .LVU167
 569              		.loc 1 819 11 is_stmt 0 view .LVU168
 570 0024 0021     		movs	r1, #0
 571 0026 9847     		blx	r3
 572              	.LVL45:
 573              		.loc 1 819 10 discriminator 1 view .LVU169
 574 0028 0746     		mov	r7, r0
 575 002a C8B9     		cbnz	r0, .L44
 576              	.L39:
 577              	.LVL46:
 820:Middlewares/ST/STM32_USB_Device_Library/Core/Src/usbd_core.c ****       {
 821:Middlewares/ST/STM32_USB_Device_Library/Core/Src/usbd_core.c ****         ret = USBD_FAIL;
 822:Middlewares/ST/STM32_USB_Device_Library/Core/Src/usbd_core.c ****       }
 823:Middlewares/ST/STM32_USB_Device_Library/Core/Src/usbd_core.c ****     }
 824:Middlewares/ST/STM32_USB_Device_Library/Core/Src/usbd_core.c ****   }
 825:Middlewares/ST/STM32_USB_Device_Library/Core/Src/usbd_core.c **** #endif /* USE_USBD_COMPOSITE */
 826:Middlewares/ST/STM32_USB_Device_Library/Core/Src/usbd_core.c **** 
 827:Middlewares/ST/STM32_USB_Device_Library/Core/Src/usbd_core.c ****   /* Open EP0 OUT */
 828:Middlewares/ST/STM32_USB_Device_Library/Core/Src/usbd_core.c ****   (void)USBD_LL_OpenEP(pdev, 0x00U, USBD_EP_TYPE_CTRL, USB_MAX_EP0_SIZE);
 578              		.loc 1 828 3 is_stmt 1 view .LVU170
 579              		.loc 1 828 9 is_stmt 0 view .LVU171
 580 002c 4023     		movs	r3, #64
 581 002e 0022     		movs	r2, #0
 582 0030 1146     		mov	r1, r2
 583 0032 2046     		mov	r0, r4
 584 0034 FFF7FEFF 		bl	USBD_LL_OpenEP
 585              	.LVL47:
 829:Middlewares/ST/STM32_USB_Device_Library/Core/Src/usbd_core.c ****   pdev->ep_out[0x00U & 0xFU].is_used = 1U;
 586              		.loc 1 829 3 is_stmt 1 view .LVU172
 587              		.loc 1 829 38 is_stmt 0 view .LVU173
 588 0038 0126     		movs	r6, #1
 589 003a A4F86461 		strh	r6, [r4, #356]	@ movhi
 830:Middlewares/ST/STM32_USB_Device_Library/Core/Src/usbd_core.c **** 
 831:Middlewares/ST/STM32_USB_Device_Library/Core/Src/usbd_core.c ****   pdev->ep_out[0].maxpacket = USB_MAX_EP0_SIZE;
 590              		.loc 1 831 3 is_stmt 1 view .LVU174
 591              		.loc 1 831 29 is_stmt 0 view .LVU175
 592 003e 4025     		movs	r5, #64
 593 0040 C4F86051 		str	r5, [r4, #352]
 832:Middlewares/ST/STM32_USB_Device_Library/Core/Src/usbd_core.c **** 
 833:Middlewares/ST/STM32_USB_Device_Library/Core/Src/usbd_core.c ****   /* Open EP0 IN */
 834:Middlewares/ST/STM32_USB_Device_Library/Core/Src/usbd_core.c ****   (void)USBD_LL_OpenEP(pdev, 0x80U, USBD_EP_TYPE_CTRL, USB_MAX_EP0_SIZE);
 594              		.loc 1 834 3 is_stmt 1 view .LVU176
ARM GAS  C:\Users\User\AppData\Local\Temp\cc8N179E.s 			page 26


 595              		.loc 1 834 9 is_stmt 0 view .LVU177
 596 0044 2B46     		mov	r3, r5
 597 0046 0022     		movs	r2, #0
 598 0048 8021     		movs	r1, #128
 599 004a 2046     		mov	r0, r4
 600 004c FFF7FEFF 		bl	USBD_LL_OpenEP
 601              	.LVL48:
 835:Middlewares/ST/STM32_USB_Device_Library/Core/Src/usbd_core.c ****   pdev->ep_in[0x80U & 0xFU].is_used = 1U;
 602              		.loc 1 835 3 is_stmt 1 view .LVU178
 603              		.loc 1 835 37 is_stmt 0 view .LVU179
 604 0050 A684     		strh	r6, [r4, #36]	@ movhi
 836:Middlewares/ST/STM32_USB_Device_Library/Core/Src/usbd_core.c **** 
 837:Middlewares/ST/STM32_USB_Device_Library/Core/Src/usbd_core.c ****   pdev->ep_in[0].maxpacket = USB_MAX_EP0_SIZE;
 605              		.loc 1 837 3 is_stmt 1 view .LVU180
 606              		.loc 1 837 28 is_stmt 0 view .LVU181
 607 0052 2562     		str	r5, [r4, #32]
 838:Middlewares/ST/STM32_USB_Device_Library/Core/Src/usbd_core.c **** 
 839:Middlewares/ST/STM32_USB_Device_Library/Core/Src/usbd_core.c ****   return ret;
 608              		.loc 1 839 3 is_stmt 1 view .LVU182
 840:Middlewares/ST/STM32_USB_Device_Library/Core/Src/usbd_core.c **** }
 609              		.loc 1 840 1 is_stmt 0 view .LVU183
 610 0054 3846     		mov	r0, r7
 611 0056 F8BD     		pop	{r3, r4, r5, r6, r7, pc}
 612              	.LVL49:
 613              	.L40:
 782:Middlewares/ST/STM32_USB_Device_Library/Core/Src/usbd_core.c **** 
 614              		.loc 1 782 22 view .LVU184
 615 0058 0027     		movs	r7, #0
 616 005a E7E7     		b	.L39
 617              	.L41:
 618 005c 0027     		movs	r7, #0
 619 005e E5E7     		b	.L39
 620              	.LVL50:
 621              	.L44:
 821:Middlewares/ST/STM32_USB_Device_Library/Core/Src/usbd_core.c ****       }
 622              		.loc 1 821 13 view .LVU185
 623 0060 0327     		movs	r7, #3
 624 0062 E3E7     		b	.L39
 625              		.cfi_endproc
 626              	.LFE145:
 628              		.section	.text.USBD_LL_SetSpeed,"ax",%progbits
 629              		.align	1
 630              		.global	USBD_LL_SetSpeed
 631              		.syntax unified
 632              		.thumb
 633              		.thumb_func
 635              	USBD_LL_SetSpeed:
 636              	.LVL51:
 637              	.LFB146:
 841:Middlewares/ST/STM32_USB_Device_Library/Core/Src/usbd_core.c **** 
 842:Middlewares/ST/STM32_USB_Device_Library/Core/Src/usbd_core.c **** /**
 843:Middlewares/ST/STM32_USB_Device_Library/Core/Src/usbd_core.c ****   * @brief  USBD_LL_SetSpeed
 844:Middlewares/ST/STM32_USB_Device_Library/Core/Src/usbd_core.c ****   *         Handle Reset event
 845:Middlewares/ST/STM32_USB_Device_Library/Core/Src/usbd_core.c ****   * @param  pdev: device instance
 846:Middlewares/ST/STM32_USB_Device_Library/Core/Src/usbd_core.c ****   * @retval status
 847:Middlewares/ST/STM32_USB_Device_Library/Core/Src/usbd_core.c ****   */
 848:Middlewares/ST/STM32_USB_Device_Library/Core/Src/usbd_core.c **** USBD_StatusTypeDef USBD_LL_SetSpeed(USBD_HandleTypeDef *pdev,
ARM GAS  C:\Users\User\AppData\Local\Temp\cc8N179E.s 			page 27


 849:Middlewares/ST/STM32_USB_Device_Library/Core/Src/usbd_core.c ****                                     USBD_SpeedTypeDef speed)
 850:Middlewares/ST/STM32_USB_Device_Library/Core/Src/usbd_core.c **** {
 638              		.loc 1 850 1 is_stmt 1 view -0
 639              		.cfi_startproc
 640              		@ args = 0, pretend = 0, frame = 0
 641              		@ frame_needed = 0, uses_anonymous_args = 0
 642              		@ link register save eliminated.
 851:Middlewares/ST/STM32_USB_Device_Library/Core/Src/usbd_core.c ****   pdev->dev_speed = speed;
 643              		.loc 1 851 3 view .LVU187
 644              		.loc 1 851 19 is_stmt 0 view .LVU188
 645 0000 0174     		strb	r1, [r0, #16]
 852:Middlewares/ST/STM32_USB_Device_Library/Core/Src/usbd_core.c **** 
 853:Middlewares/ST/STM32_USB_Device_Library/Core/Src/usbd_core.c ****   return USBD_OK;
 646              		.loc 1 853 3 is_stmt 1 view .LVU189
 854:Middlewares/ST/STM32_USB_Device_Library/Core/Src/usbd_core.c **** }
 647              		.loc 1 854 1 is_stmt 0 view .LVU190
 648 0002 0020     		movs	r0, #0
 649              	.LVL52:
 650              		.loc 1 854 1 view .LVU191
 651 0004 7047     		bx	lr
 652              		.cfi_endproc
 653              	.LFE146:
 655              		.section	.text.USBD_LL_Suspend,"ax",%progbits
 656              		.align	1
 657              		.global	USBD_LL_Suspend
 658              		.syntax unified
 659              		.thumb
 660              		.thumb_func
 662              	USBD_LL_Suspend:
 663              	.LVL53:
 664              	.LFB147:
 855:Middlewares/ST/STM32_USB_Device_Library/Core/Src/usbd_core.c **** 
 856:Middlewares/ST/STM32_USB_Device_Library/Core/Src/usbd_core.c **** /**
 857:Middlewares/ST/STM32_USB_Device_Library/Core/Src/usbd_core.c ****   * @brief  USBD_LL_Suspend
 858:Middlewares/ST/STM32_USB_Device_Library/Core/Src/usbd_core.c ****   *         Handle Suspend event
 859:Middlewares/ST/STM32_USB_Device_Library/Core/Src/usbd_core.c ****   * @param  pdev: device instance
 860:Middlewares/ST/STM32_USB_Device_Library/Core/Src/usbd_core.c ****   * @retval status
 861:Middlewares/ST/STM32_USB_Device_Library/Core/Src/usbd_core.c ****   */
 862:Middlewares/ST/STM32_USB_Device_Library/Core/Src/usbd_core.c **** 
 863:Middlewares/ST/STM32_USB_Device_Library/Core/Src/usbd_core.c **** USBD_StatusTypeDef USBD_LL_Suspend(USBD_HandleTypeDef *pdev)
 864:Middlewares/ST/STM32_USB_Device_Library/Core/Src/usbd_core.c **** {
 665              		.loc 1 864 1 is_stmt 1 view -0
 666              		.cfi_startproc
 667              		@ args = 0, pretend = 0, frame = 0
 668              		@ frame_needed = 0, uses_anonymous_args = 0
 669              		@ link register save eliminated.
 865:Middlewares/ST/STM32_USB_Device_Library/Core/Src/usbd_core.c ****   pdev->dev_old_state = pdev->dev_state;
 670              		.loc 1 865 3 view .LVU193
 671              		.loc 1 865 29 is_stmt 0 view .LVU194
 672 0000 90F89C32 		ldrb	r3, [r0, #668]	@ zero_extendqisi2
 673 0004 DBB2     		uxtb	r3, r3
 674              		.loc 1 865 23 view .LVU195
 675 0006 80F89D32 		strb	r3, [r0, #669]
 866:Middlewares/ST/STM32_USB_Device_Library/Core/Src/usbd_core.c ****   pdev->dev_state = USBD_STATE_SUSPENDED;
 676              		.loc 1 866 3 is_stmt 1 view .LVU196
 677              		.loc 1 866 19 is_stmt 0 view .LVU197
 678 000a 0423     		movs	r3, #4
ARM GAS  C:\Users\User\AppData\Local\Temp\cc8N179E.s 			page 28


 679 000c 80F89C32 		strb	r3, [r0, #668]
 867:Middlewares/ST/STM32_USB_Device_Library/Core/Src/usbd_core.c **** 
 868:Middlewares/ST/STM32_USB_Device_Library/Core/Src/usbd_core.c ****   return USBD_OK;
 680              		.loc 1 868 3 is_stmt 1 view .LVU198
 869:Middlewares/ST/STM32_USB_Device_Library/Core/Src/usbd_core.c **** }
 681              		.loc 1 869 1 is_stmt 0 view .LVU199
 682 0010 0020     		movs	r0, #0
 683              	.LVL54:
 684              		.loc 1 869 1 view .LVU200
 685 0012 7047     		bx	lr
 686              		.cfi_endproc
 687              	.LFE147:
 689              		.section	.text.USBD_LL_Resume,"ax",%progbits
 690              		.align	1
 691              		.global	USBD_LL_Resume
 692              		.syntax unified
 693              		.thumb
 694              		.thumb_func
 696              	USBD_LL_Resume:
 697              	.LVL55:
 698              	.LFB148:
 870:Middlewares/ST/STM32_USB_Device_Library/Core/Src/usbd_core.c **** 
 871:Middlewares/ST/STM32_USB_Device_Library/Core/Src/usbd_core.c **** /**
 872:Middlewares/ST/STM32_USB_Device_Library/Core/Src/usbd_core.c ****   * @brief  USBD_LL_Resume
 873:Middlewares/ST/STM32_USB_Device_Library/Core/Src/usbd_core.c ****   *         Handle Resume event
 874:Middlewares/ST/STM32_USB_Device_Library/Core/Src/usbd_core.c ****   * @param  pdev: device instance
 875:Middlewares/ST/STM32_USB_Device_Library/Core/Src/usbd_core.c ****   * @retval status
 876:Middlewares/ST/STM32_USB_Device_Library/Core/Src/usbd_core.c ****   */
 877:Middlewares/ST/STM32_USB_Device_Library/Core/Src/usbd_core.c **** 
 878:Middlewares/ST/STM32_USB_Device_Library/Core/Src/usbd_core.c **** USBD_StatusTypeDef USBD_LL_Resume(USBD_HandleTypeDef *pdev)
 879:Middlewares/ST/STM32_USB_Device_Library/Core/Src/usbd_core.c **** {
 699              		.loc 1 879 1 is_stmt 1 view -0
 700              		.cfi_startproc
 701              		@ args = 0, pretend = 0, frame = 0
 702              		@ frame_needed = 0, uses_anonymous_args = 0
 703              		@ link register save eliminated.
 880:Middlewares/ST/STM32_USB_Device_Library/Core/Src/usbd_core.c ****   if (pdev->dev_state == USBD_STATE_SUSPENDED)
 704              		.loc 1 880 3 view .LVU202
 705              		.loc 1 880 11 is_stmt 0 view .LVU203
 706 0000 90F89C32 		ldrb	r3, [r0, #668]	@ zero_extendqisi2
 707 0004 DBB2     		uxtb	r3, r3
 708              		.loc 1 880 6 view .LVU204
 709 0006 042B     		cmp	r3, #4
 710 0008 01D0     		beq	.L49
 711              	.L48:
 881:Middlewares/ST/STM32_USB_Device_Library/Core/Src/usbd_core.c ****   {
 882:Middlewares/ST/STM32_USB_Device_Library/Core/Src/usbd_core.c ****     pdev->dev_state = pdev->dev_old_state;
 883:Middlewares/ST/STM32_USB_Device_Library/Core/Src/usbd_core.c ****   }
 884:Middlewares/ST/STM32_USB_Device_Library/Core/Src/usbd_core.c **** 
 885:Middlewares/ST/STM32_USB_Device_Library/Core/Src/usbd_core.c ****   return USBD_OK;
 712              		.loc 1 885 3 is_stmt 1 view .LVU205
 886:Middlewares/ST/STM32_USB_Device_Library/Core/Src/usbd_core.c **** }
 713              		.loc 1 886 1 is_stmt 0 view .LVU206
 714 000a 0020     		movs	r0, #0
 715              	.LVL56:
 716              		.loc 1 886 1 view .LVU207
 717 000c 7047     		bx	lr
ARM GAS  C:\Users\User\AppData\Local\Temp\cc8N179E.s 			page 29


 718              	.LVL57:
 719              	.L49:
 882:Middlewares/ST/STM32_USB_Device_Library/Core/Src/usbd_core.c ****   }
 720              		.loc 1 882 5 is_stmt 1 view .LVU208
 882:Middlewares/ST/STM32_USB_Device_Library/Core/Src/usbd_core.c ****   }
 721              		.loc 1 882 27 is_stmt 0 view .LVU209
 722 000e 90F89D32 		ldrb	r3, [r0, #669]	@ zero_extendqisi2
 723 0012 DBB2     		uxtb	r3, r3
 882:Middlewares/ST/STM32_USB_Device_Library/Core/Src/usbd_core.c ****   }
 724              		.loc 1 882 21 view .LVU210
 725 0014 80F89C32 		strb	r3, [r0, #668]
 726 0018 F7E7     		b	.L48
 727              		.cfi_endproc
 728              	.LFE148:
 730              		.section	.text.USBD_LL_SOF,"ax",%progbits
 731              		.align	1
 732              		.global	USBD_LL_SOF
 733              		.syntax unified
 734              		.thumb
 735              		.thumb_func
 737              	USBD_LL_SOF:
 738              	.LVL58:
 739              	.LFB149:
 887:Middlewares/ST/STM32_USB_Device_Library/Core/Src/usbd_core.c **** 
 888:Middlewares/ST/STM32_USB_Device_Library/Core/Src/usbd_core.c **** /**
 889:Middlewares/ST/STM32_USB_Device_Library/Core/Src/usbd_core.c ****   * @brief  USBD_LL_SOF
 890:Middlewares/ST/STM32_USB_Device_Library/Core/Src/usbd_core.c ****   *         Handle SOF event
 891:Middlewares/ST/STM32_USB_Device_Library/Core/Src/usbd_core.c ****   * @param  pdev: device instance
 892:Middlewares/ST/STM32_USB_Device_Library/Core/Src/usbd_core.c ****   * @retval status
 893:Middlewares/ST/STM32_USB_Device_Library/Core/Src/usbd_core.c ****   */
 894:Middlewares/ST/STM32_USB_Device_Library/Core/Src/usbd_core.c **** 
 895:Middlewares/ST/STM32_USB_Device_Library/Core/Src/usbd_core.c **** USBD_StatusTypeDef USBD_LL_SOF(USBD_HandleTypeDef *pdev)
 896:Middlewares/ST/STM32_USB_Device_Library/Core/Src/usbd_core.c **** {
 740              		.loc 1 896 1 is_stmt 1 view -0
 741              		.cfi_startproc
 742              		@ args = 0, pretend = 0, frame = 0
 743              		@ frame_needed = 0, uses_anonymous_args = 0
 744              		.loc 1 896 1 is_stmt 0 view .LVU212
 745 0000 08B5     		push	{r3, lr}
 746              		.cfi_def_cfa_offset 8
 747              		.cfi_offset 3, -8
 748              		.cfi_offset 14, -4
 897:Middlewares/ST/STM32_USB_Device_Library/Core/Src/usbd_core.c ****   /* The SOF event can be distributed for all classes that support it */
 898:Middlewares/ST/STM32_USB_Device_Library/Core/Src/usbd_core.c ****   if (pdev->dev_state == USBD_STATE_CONFIGURED)
 749              		.loc 1 898 3 is_stmt 1 view .LVU213
 750              		.loc 1 898 11 is_stmt 0 view .LVU214
 751 0002 90F89C32 		ldrb	r3, [r0, #668]	@ zero_extendqisi2
 752 0006 DBB2     		uxtb	r3, r3
 753              		.loc 1 898 6 view .LVU215
 754 0008 032B     		cmp	r3, #3
 755 000a 01D0     		beq	.L53
 756              	.LVL59:
 757              	.L51:
 899:Middlewares/ST/STM32_USB_Device_Library/Core/Src/usbd_core.c ****   {
 900:Middlewares/ST/STM32_USB_Device_Library/Core/Src/usbd_core.c **** #ifdef USE_USBD_COMPOSITE
 901:Middlewares/ST/STM32_USB_Device_Library/Core/Src/usbd_core.c ****     /* Parse the table of classes in use */
 902:Middlewares/ST/STM32_USB_Device_Library/Core/Src/usbd_core.c ****     for (uint32_t i = 0; i < USBD_MAX_SUPPORTED_CLASS; i++)
ARM GAS  C:\Users\User\AppData\Local\Temp\cc8N179E.s 			page 30


 903:Middlewares/ST/STM32_USB_Device_Library/Core/Src/usbd_core.c ****     {
 904:Middlewares/ST/STM32_USB_Device_Library/Core/Src/usbd_core.c ****       /* Check if current class is in use */
 905:Middlewares/ST/STM32_USB_Device_Library/Core/Src/usbd_core.c ****       if ((pdev->tclasslist[i].Active) == 1U)
 906:Middlewares/ST/STM32_USB_Device_Library/Core/Src/usbd_core.c ****       {
 907:Middlewares/ST/STM32_USB_Device_Library/Core/Src/usbd_core.c ****         if (pdev->pClass[i] != NULL)
 908:Middlewares/ST/STM32_USB_Device_Library/Core/Src/usbd_core.c ****         {
 909:Middlewares/ST/STM32_USB_Device_Library/Core/Src/usbd_core.c ****           if (pdev->pClass[i]->SOF != NULL)
 910:Middlewares/ST/STM32_USB_Device_Library/Core/Src/usbd_core.c ****           {
 911:Middlewares/ST/STM32_USB_Device_Library/Core/Src/usbd_core.c ****             pdev->classId = i;
 912:Middlewares/ST/STM32_USB_Device_Library/Core/Src/usbd_core.c ****             (void)pdev->pClass[i]->SOF(pdev);
 913:Middlewares/ST/STM32_USB_Device_Library/Core/Src/usbd_core.c ****           }
 914:Middlewares/ST/STM32_USB_Device_Library/Core/Src/usbd_core.c ****         }
 915:Middlewares/ST/STM32_USB_Device_Library/Core/Src/usbd_core.c ****       }
 916:Middlewares/ST/STM32_USB_Device_Library/Core/Src/usbd_core.c ****     }
 917:Middlewares/ST/STM32_USB_Device_Library/Core/Src/usbd_core.c **** #else
 918:Middlewares/ST/STM32_USB_Device_Library/Core/Src/usbd_core.c ****     if (pdev->pClass[0] != NULL)
 919:Middlewares/ST/STM32_USB_Device_Library/Core/Src/usbd_core.c ****     {
 920:Middlewares/ST/STM32_USB_Device_Library/Core/Src/usbd_core.c ****       if (pdev->pClass[0]->SOF != NULL)
 921:Middlewares/ST/STM32_USB_Device_Library/Core/Src/usbd_core.c ****       {
 922:Middlewares/ST/STM32_USB_Device_Library/Core/Src/usbd_core.c ****         (void)pdev->pClass[0]->SOF(pdev);
 923:Middlewares/ST/STM32_USB_Device_Library/Core/Src/usbd_core.c ****       }
 924:Middlewares/ST/STM32_USB_Device_Library/Core/Src/usbd_core.c ****     }
 925:Middlewares/ST/STM32_USB_Device_Library/Core/Src/usbd_core.c **** #endif /* USE_USBD_COMPOSITE */
 926:Middlewares/ST/STM32_USB_Device_Library/Core/Src/usbd_core.c ****   }
 927:Middlewares/ST/STM32_USB_Device_Library/Core/Src/usbd_core.c **** 
 928:Middlewares/ST/STM32_USB_Device_Library/Core/Src/usbd_core.c ****   return USBD_OK;
 758              		.loc 1 928 3 is_stmt 1 view .LVU216
 929:Middlewares/ST/STM32_USB_Device_Library/Core/Src/usbd_core.c **** }
 759              		.loc 1 929 1 is_stmt 0 view .LVU217
 760 000c 0020     		movs	r0, #0
 761 000e 08BD     		pop	{r3, pc}
 762              	.LVL60:
 763              	.L53:
 918:Middlewares/ST/STM32_USB_Device_Library/Core/Src/usbd_core.c ****     {
 764              		.loc 1 918 5 is_stmt 1 view .LVU218
 918:Middlewares/ST/STM32_USB_Device_Library/Core/Src/usbd_core.c ****     {
 765              		.loc 1 918 21 is_stmt 0 view .LVU219
 766 0010 D0F8B832 		ldr	r3, [r0, #696]
 918:Middlewares/ST/STM32_USB_Device_Library/Core/Src/usbd_core.c ****     {
 767              		.loc 1 918 8 view .LVU220
 768 0014 002B     		cmp	r3, #0
 769 0016 F9D0     		beq	.L51
 920:Middlewares/ST/STM32_USB_Device_Library/Core/Src/usbd_core.c ****       {
 770              		.loc 1 920 7 is_stmt 1 view .LVU221
 920:Middlewares/ST/STM32_USB_Device_Library/Core/Src/usbd_core.c ****       {
 771              		.loc 1 920 26 is_stmt 0 view .LVU222
 772 0018 DB69     		ldr	r3, [r3, #28]
 920:Middlewares/ST/STM32_USB_Device_Library/Core/Src/usbd_core.c ****       {
 773              		.loc 1 920 10 view .LVU223
 774 001a 002B     		cmp	r3, #0
 775 001c F6D0     		beq	.L51
 922:Middlewares/ST/STM32_USB_Device_Library/Core/Src/usbd_core.c ****       }
 776              		.loc 1 922 9 is_stmt 1 view .LVU224
 922:Middlewares/ST/STM32_USB_Device_Library/Core/Src/usbd_core.c ****       }
 777              		.loc 1 922 15 is_stmt 0 view .LVU225
 778 001e 9847     		blx	r3
 779              	.LVL61:
ARM GAS  C:\Users\User\AppData\Local\Temp\cc8N179E.s 			page 31


 922:Middlewares/ST/STM32_USB_Device_Library/Core/Src/usbd_core.c ****       }
 780              		.loc 1 922 15 view .LVU226
 781 0020 F4E7     		b	.L51
 782              		.cfi_endproc
 783              	.LFE149:
 785              		.section	.text.USBD_LL_IsoINIncomplete,"ax",%progbits
 786              		.align	1
 787              		.global	USBD_LL_IsoINIncomplete
 788              		.syntax unified
 789              		.thumb
 790              		.thumb_func
 792              	USBD_LL_IsoINIncomplete:
 793              	.LVL62:
 794              	.LFB150:
 930:Middlewares/ST/STM32_USB_Device_Library/Core/Src/usbd_core.c **** 
 931:Middlewares/ST/STM32_USB_Device_Library/Core/Src/usbd_core.c **** /**
 932:Middlewares/ST/STM32_USB_Device_Library/Core/Src/usbd_core.c ****   * @brief  USBD_LL_IsoINIncomplete
 933:Middlewares/ST/STM32_USB_Device_Library/Core/Src/usbd_core.c ****   *         Handle iso in incomplete event
 934:Middlewares/ST/STM32_USB_Device_Library/Core/Src/usbd_core.c ****   * @param  pdev: device instance
 935:Middlewares/ST/STM32_USB_Device_Library/Core/Src/usbd_core.c ****   * @retval status
 936:Middlewares/ST/STM32_USB_Device_Library/Core/Src/usbd_core.c ****   */
 937:Middlewares/ST/STM32_USB_Device_Library/Core/Src/usbd_core.c **** USBD_StatusTypeDef USBD_LL_IsoINIncomplete(USBD_HandleTypeDef *pdev,
 938:Middlewares/ST/STM32_USB_Device_Library/Core/Src/usbd_core.c ****                                            uint8_t epnum)
 939:Middlewares/ST/STM32_USB_Device_Library/Core/Src/usbd_core.c **** {
 795              		.loc 1 939 1 is_stmt 1 view -0
 796              		.cfi_startproc
 797              		@ args = 0, pretend = 0, frame = 0
 798              		@ frame_needed = 0, uses_anonymous_args = 0
 799              		.loc 1 939 1 is_stmt 0 view .LVU228
 800 0000 08B5     		push	{r3, lr}
 801              		.cfi_def_cfa_offset 8
 802              		.cfi_offset 3, -8
 803              		.cfi_offset 14, -4
 940:Middlewares/ST/STM32_USB_Device_Library/Core/Src/usbd_core.c ****   if (pdev->pClass[pdev->classId] == NULL)
 804              		.loc 1 940 3 is_stmt 1 view .LVU229
 805              		.loc 1 940 24 is_stmt 0 view .LVU230
 806 0002 D0F8D432 		ldr	r3, [r0, #724]
 807              		.loc 1 940 19 view .LVU231
 808 0006 AE33     		adds	r3, r3, #174
 809 0008 50F82320 		ldr	r2, [r0, r3, lsl #2]
 810              		.loc 1 940 6 view .LVU232
 811 000c 5AB1     		cbz	r2, .L56
 941:Middlewares/ST/STM32_USB_Device_Library/Core/Src/usbd_core.c ****   {
 942:Middlewares/ST/STM32_USB_Device_Library/Core/Src/usbd_core.c ****     return USBD_FAIL;
 943:Middlewares/ST/STM32_USB_Device_Library/Core/Src/usbd_core.c ****   }
 944:Middlewares/ST/STM32_USB_Device_Library/Core/Src/usbd_core.c **** 
 945:Middlewares/ST/STM32_USB_Device_Library/Core/Src/usbd_core.c ****   if (pdev->dev_state == USBD_STATE_CONFIGURED)
 812              		.loc 1 945 3 is_stmt 1 view .LVU233
 813              		.loc 1 945 11 is_stmt 0 view .LVU234
 814 000e 90F89C32 		ldrb	r3, [r0, #668]	@ zero_extendqisi2
 815 0012 DBB2     		uxtb	r3, r3
 816              		.loc 1 945 6 view .LVU235
 817 0014 032B     		cmp	r3, #3
 818 0016 01D0     		beq	.L60
 946:Middlewares/ST/STM32_USB_Device_Library/Core/Src/usbd_core.c ****   {
 947:Middlewares/ST/STM32_USB_Device_Library/Core/Src/usbd_core.c ****     if (pdev->pClass[pdev->classId]->IsoINIncomplete != NULL)
 948:Middlewares/ST/STM32_USB_Device_Library/Core/Src/usbd_core.c ****     {
ARM GAS  C:\Users\User\AppData\Local\Temp\cc8N179E.s 			page 32


 949:Middlewares/ST/STM32_USB_Device_Library/Core/Src/usbd_core.c ****       (void)pdev->pClass[pdev->classId]->IsoINIncomplete(pdev, epnum);
 950:Middlewares/ST/STM32_USB_Device_Library/Core/Src/usbd_core.c ****     }
 951:Middlewares/ST/STM32_USB_Device_Library/Core/Src/usbd_core.c ****   }
 952:Middlewares/ST/STM32_USB_Device_Library/Core/Src/usbd_core.c **** 
 953:Middlewares/ST/STM32_USB_Device_Library/Core/Src/usbd_core.c ****   return USBD_OK;
 819              		.loc 1 953 10 view .LVU236
 820 0018 0020     		movs	r0, #0
 821              	.LVL63:
 822              	.L55:
 954:Middlewares/ST/STM32_USB_Device_Library/Core/Src/usbd_core.c **** }
 823              		.loc 1 954 1 view .LVU237
 824 001a 08BD     		pop	{r3, pc}
 825              	.LVL64:
 826              	.L60:
 947:Middlewares/ST/STM32_USB_Device_Library/Core/Src/usbd_core.c ****     {
 827              		.loc 1 947 5 is_stmt 1 view .LVU238
 947:Middlewares/ST/STM32_USB_Device_Library/Core/Src/usbd_core.c ****     {
 828              		.loc 1 947 36 is_stmt 0 view .LVU239
 829 001c 136A     		ldr	r3, [r2, #32]
 947:Middlewares/ST/STM32_USB_Device_Library/Core/Src/usbd_core.c ****     {
 830              		.loc 1 947 8 view .LVU240
 831 001e 23B1     		cbz	r3, .L58
 949:Middlewares/ST/STM32_USB_Device_Library/Core/Src/usbd_core.c ****     }
 832              		.loc 1 949 7 is_stmt 1 view .LVU241
 949:Middlewares/ST/STM32_USB_Device_Library/Core/Src/usbd_core.c ****     }
 833              		.loc 1 949 13 is_stmt 0 view .LVU242
 834 0020 9847     		blx	r3
 835              	.LVL65:
 953:Middlewares/ST/STM32_USB_Device_Library/Core/Src/usbd_core.c **** }
 836              		.loc 1 953 10 view .LVU243
 837 0022 0020     		movs	r0, #0
 838 0024 F9E7     		b	.L55
 839              	.LVL66:
 840              	.L56:
 942:Middlewares/ST/STM32_USB_Device_Library/Core/Src/usbd_core.c ****   }
 841              		.loc 1 942 12 view .LVU244
 842 0026 0320     		movs	r0, #3
 843              	.LVL67:
 942:Middlewares/ST/STM32_USB_Device_Library/Core/Src/usbd_core.c ****   }
 844              		.loc 1 942 12 view .LVU245
 845 0028 F7E7     		b	.L55
 846              	.LVL68:
 847              	.L58:
 953:Middlewares/ST/STM32_USB_Device_Library/Core/Src/usbd_core.c **** }
 848              		.loc 1 953 10 view .LVU246
 849 002a 0020     		movs	r0, #0
 850              	.LVL69:
 953:Middlewares/ST/STM32_USB_Device_Library/Core/Src/usbd_core.c **** }
 851              		.loc 1 953 10 view .LVU247
 852 002c F5E7     		b	.L55
 853              		.cfi_endproc
 854              	.LFE150:
 856              		.section	.text.USBD_LL_IsoOUTIncomplete,"ax",%progbits
 857              		.align	1
 858              		.global	USBD_LL_IsoOUTIncomplete
 859              		.syntax unified
 860              		.thumb
ARM GAS  C:\Users\User\AppData\Local\Temp\cc8N179E.s 			page 33


 861              		.thumb_func
 863              	USBD_LL_IsoOUTIncomplete:
 864              	.LVL70:
 865              	.LFB151:
 955:Middlewares/ST/STM32_USB_Device_Library/Core/Src/usbd_core.c **** 
 956:Middlewares/ST/STM32_USB_Device_Library/Core/Src/usbd_core.c **** /**
 957:Middlewares/ST/STM32_USB_Device_Library/Core/Src/usbd_core.c ****   * @brief  USBD_LL_IsoOUTIncomplete
 958:Middlewares/ST/STM32_USB_Device_Library/Core/Src/usbd_core.c ****   *         Handle iso out incomplete event
 959:Middlewares/ST/STM32_USB_Device_Library/Core/Src/usbd_core.c ****   * @param  pdev: device instance
 960:Middlewares/ST/STM32_USB_Device_Library/Core/Src/usbd_core.c ****   * @retval status
 961:Middlewares/ST/STM32_USB_Device_Library/Core/Src/usbd_core.c ****   */
 962:Middlewares/ST/STM32_USB_Device_Library/Core/Src/usbd_core.c **** USBD_StatusTypeDef USBD_LL_IsoOUTIncomplete(USBD_HandleTypeDef *pdev,
 963:Middlewares/ST/STM32_USB_Device_Library/Core/Src/usbd_core.c ****                                             uint8_t epnum)
 964:Middlewares/ST/STM32_USB_Device_Library/Core/Src/usbd_core.c **** {
 866              		.loc 1 964 1 is_stmt 1 view -0
 867              		.cfi_startproc
 868              		@ args = 0, pretend = 0, frame = 0
 869              		@ frame_needed = 0, uses_anonymous_args = 0
 870              		.loc 1 964 1 is_stmt 0 view .LVU249
 871 0000 08B5     		push	{r3, lr}
 872              		.cfi_def_cfa_offset 8
 873              		.cfi_offset 3, -8
 874              		.cfi_offset 14, -4
 965:Middlewares/ST/STM32_USB_Device_Library/Core/Src/usbd_core.c ****   if (pdev->pClass[pdev->classId] == NULL)
 875              		.loc 1 965 3 is_stmt 1 view .LVU250
 876              		.loc 1 965 24 is_stmt 0 view .LVU251
 877 0002 D0F8D432 		ldr	r3, [r0, #724]
 878              		.loc 1 965 19 view .LVU252
 879 0006 AE33     		adds	r3, r3, #174
 880 0008 50F82320 		ldr	r2, [r0, r3, lsl #2]
 881              		.loc 1 965 6 view .LVU253
 882 000c 5AB1     		cbz	r2, .L63
 966:Middlewares/ST/STM32_USB_Device_Library/Core/Src/usbd_core.c ****   {
 967:Middlewares/ST/STM32_USB_Device_Library/Core/Src/usbd_core.c ****     return USBD_FAIL;
 968:Middlewares/ST/STM32_USB_Device_Library/Core/Src/usbd_core.c ****   }
 969:Middlewares/ST/STM32_USB_Device_Library/Core/Src/usbd_core.c **** 
 970:Middlewares/ST/STM32_USB_Device_Library/Core/Src/usbd_core.c ****   if (pdev->dev_state == USBD_STATE_CONFIGURED)
 883              		.loc 1 970 3 is_stmt 1 view .LVU254
 884              		.loc 1 970 11 is_stmt 0 view .LVU255
 885 000e 90F89C32 		ldrb	r3, [r0, #668]	@ zero_extendqisi2
 886 0012 DBB2     		uxtb	r3, r3
 887              		.loc 1 970 6 view .LVU256
 888 0014 032B     		cmp	r3, #3
 889 0016 01D0     		beq	.L67
 971:Middlewares/ST/STM32_USB_Device_Library/Core/Src/usbd_core.c ****   {
 972:Middlewares/ST/STM32_USB_Device_Library/Core/Src/usbd_core.c ****     if (pdev->pClass[pdev->classId]->IsoOUTIncomplete != NULL)
 973:Middlewares/ST/STM32_USB_Device_Library/Core/Src/usbd_core.c ****     {
 974:Middlewares/ST/STM32_USB_Device_Library/Core/Src/usbd_core.c ****       (void)pdev->pClass[pdev->classId]->IsoOUTIncomplete(pdev, epnum);
 975:Middlewares/ST/STM32_USB_Device_Library/Core/Src/usbd_core.c ****     }
 976:Middlewares/ST/STM32_USB_Device_Library/Core/Src/usbd_core.c ****   }
 977:Middlewares/ST/STM32_USB_Device_Library/Core/Src/usbd_core.c **** 
 978:Middlewares/ST/STM32_USB_Device_Library/Core/Src/usbd_core.c ****   return USBD_OK;
 890              		.loc 1 978 10 view .LVU257
 891 0018 0020     		movs	r0, #0
 892              	.LVL71:
 893              	.L62:
 979:Middlewares/ST/STM32_USB_Device_Library/Core/Src/usbd_core.c **** }
ARM GAS  C:\Users\User\AppData\Local\Temp\cc8N179E.s 			page 34


 894              		.loc 1 979 1 view .LVU258
 895 001a 08BD     		pop	{r3, pc}
 896              	.LVL72:
 897              	.L67:
 972:Middlewares/ST/STM32_USB_Device_Library/Core/Src/usbd_core.c ****     {
 898              		.loc 1 972 5 is_stmt 1 view .LVU259
 972:Middlewares/ST/STM32_USB_Device_Library/Core/Src/usbd_core.c ****     {
 899              		.loc 1 972 36 is_stmt 0 view .LVU260
 900 001c 536A     		ldr	r3, [r2, #36]
 972:Middlewares/ST/STM32_USB_Device_Library/Core/Src/usbd_core.c ****     {
 901              		.loc 1 972 8 view .LVU261
 902 001e 23B1     		cbz	r3, .L65
 974:Middlewares/ST/STM32_USB_Device_Library/Core/Src/usbd_core.c ****     }
 903              		.loc 1 974 7 is_stmt 1 view .LVU262
 974:Middlewares/ST/STM32_USB_Device_Library/Core/Src/usbd_core.c ****     }
 904              		.loc 1 974 13 is_stmt 0 view .LVU263
 905 0020 9847     		blx	r3
 906              	.LVL73:
 978:Middlewares/ST/STM32_USB_Device_Library/Core/Src/usbd_core.c **** }
 907              		.loc 1 978 10 view .LVU264
 908 0022 0020     		movs	r0, #0
 909 0024 F9E7     		b	.L62
 910              	.LVL74:
 911              	.L63:
 967:Middlewares/ST/STM32_USB_Device_Library/Core/Src/usbd_core.c ****   }
 912              		.loc 1 967 12 view .LVU265
 913 0026 0320     		movs	r0, #3
 914              	.LVL75:
 967:Middlewares/ST/STM32_USB_Device_Library/Core/Src/usbd_core.c ****   }
 915              		.loc 1 967 12 view .LVU266
 916 0028 F7E7     		b	.L62
 917              	.LVL76:
 918              	.L65:
 978:Middlewares/ST/STM32_USB_Device_Library/Core/Src/usbd_core.c **** }
 919              		.loc 1 978 10 view .LVU267
 920 002a 0020     		movs	r0, #0
 921              	.LVL77:
 978:Middlewares/ST/STM32_USB_Device_Library/Core/Src/usbd_core.c **** }
 922              		.loc 1 978 10 view .LVU268
 923 002c F5E7     		b	.L62
 924              		.cfi_endproc
 925              	.LFE151:
 927              		.section	.text.USBD_LL_DevConnected,"ax",%progbits
 928              		.align	1
 929              		.global	USBD_LL_DevConnected
 930              		.syntax unified
 931              		.thumb
 932              		.thumb_func
 934              	USBD_LL_DevConnected:
 935              	.LVL78:
 936              	.LFB152:
 980:Middlewares/ST/STM32_USB_Device_Library/Core/Src/usbd_core.c **** 
 981:Middlewares/ST/STM32_USB_Device_Library/Core/Src/usbd_core.c **** /**
 982:Middlewares/ST/STM32_USB_Device_Library/Core/Src/usbd_core.c ****   * @brief  USBD_LL_DevConnected
 983:Middlewares/ST/STM32_USB_Device_Library/Core/Src/usbd_core.c ****   *         Handle device connection event
 984:Middlewares/ST/STM32_USB_Device_Library/Core/Src/usbd_core.c ****   * @param  pdev: device instance
 985:Middlewares/ST/STM32_USB_Device_Library/Core/Src/usbd_core.c ****   * @retval status
ARM GAS  C:\Users\User\AppData\Local\Temp\cc8N179E.s 			page 35


 986:Middlewares/ST/STM32_USB_Device_Library/Core/Src/usbd_core.c ****   */
 987:Middlewares/ST/STM32_USB_Device_Library/Core/Src/usbd_core.c **** USBD_StatusTypeDef USBD_LL_DevConnected(USBD_HandleTypeDef *pdev)
 988:Middlewares/ST/STM32_USB_Device_Library/Core/Src/usbd_core.c **** {
 937              		.loc 1 988 1 is_stmt 1 view -0
 938              		.cfi_startproc
 939              		@ args = 0, pretend = 0, frame = 0
 940              		@ frame_needed = 0, uses_anonymous_args = 0
 941              		@ link register save eliminated.
 989:Middlewares/ST/STM32_USB_Device_Library/Core/Src/usbd_core.c ****   /* Prevent unused argument compilation warning */
 990:Middlewares/ST/STM32_USB_Device_Library/Core/Src/usbd_core.c ****   UNUSED(pdev);
 942              		.loc 1 990 3 view .LVU270
 991:Middlewares/ST/STM32_USB_Device_Library/Core/Src/usbd_core.c **** 
 992:Middlewares/ST/STM32_USB_Device_Library/Core/Src/usbd_core.c ****   return USBD_OK;
 943              		.loc 1 992 3 view .LVU271
 993:Middlewares/ST/STM32_USB_Device_Library/Core/Src/usbd_core.c **** }
 944              		.loc 1 993 1 is_stmt 0 view .LVU272
 945 0000 0020     		movs	r0, #0
 946              	.LVL79:
 947              		.loc 1 993 1 view .LVU273
 948 0002 7047     		bx	lr
 949              		.cfi_endproc
 950              	.LFE152:
 952              		.section	.text.USBD_LL_DevDisconnected,"ax",%progbits
 953              		.align	1
 954              		.global	USBD_LL_DevDisconnected
 955              		.syntax unified
 956              		.thumb
 957              		.thumb_func
 959              	USBD_LL_DevDisconnected:
 960              	.LVL80:
 961              	.LFB153:
 994:Middlewares/ST/STM32_USB_Device_Library/Core/Src/usbd_core.c **** 
 995:Middlewares/ST/STM32_USB_Device_Library/Core/Src/usbd_core.c **** /**
 996:Middlewares/ST/STM32_USB_Device_Library/Core/Src/usbd_core.c ****   * @brief  USBD_LL_DevDisconnected
 997:Middlewares/ST/STM32_USB_Device_Library/Core/Src/usbd_core.c ****   *         Handle device disconnection event
 998:Middlewares/ST/STM32_USB_Device_Library/Core/Src/usbd_core.c ****   * @param  pdev: device instance
 999:Middlewares/ST/STM32_USB_Device_Library/Core/Src/usbd_core.c ****   * @retval status
1000:Middlewares/ST/STM32_USB_Device_Library/Core/Src/usbd_core.c ****   */
1001:Middlewares/ST/STM32_USB_Device_Library/Core/Src/usbd_core.c **** USBD_StatusTypeDef USBD_LL_DevDisconnected(USBD_HandleTypeDef *pdev)
1002:Middlewares/ST/STM32_USB_Device_Library/Core/Src/usbd_core.c **** {
 962              		.loc 1 1002 1 is_stmt 1 view -0
 963              		.cfi_startproc
 964              		@ args = 0, pretend = 0, frame = 0
 965              		@ frame_needed = 0, uses_anonymous_args = 0
 966              		.loc 1 1002 1 is_stmt 0 view .LVU275
 967 0000 08B5     		push	{r3, lr}
 968              		.cfi_def_cfa_offset 8
 969              		.cfi_offset 3, -8
 970              		.cfi_offset 14, -4
1003:Middlewares/ST/STM32_USB_Device_Library/Core/Src/usbd_core.c ****   USBD_StatusTypeDef   ret = USBD_OK;
 971              		.loc 1 1003 3 is_stmt 1 view .LVU276
 972              	.LVL81:
1004:Middlewares/ST/STM32_USB_Device_Library/Core/Src/usbd_core.c **** 
1005:Middlewares/ST/STM32_USB_Device_Library/Core/Src/usbd_core.c ****   /* Free Class Resources */
1006:Middlewares/ST/STM32_USB_Device_Library/Core/Src/usbd_core.c ****   pdev->dev_state = USBD_STATE_DEFAULT;
 973              		.loc 1 1006 3 view .LVU277
 974              		.loc 1 1006 19 is_stmt 0 view .LVU278
ARM GAS  C:\Users\User\AppData\Local\Temp\cc8N179E.s 			page 36


 975 0002 0123     		movs	r3, #1
 976 0004 80F89C32 		strb	r3, [r0, #668]
1007:Middlewares/ST/STM32_USB_Device_Library/Core/Src/usbd_core.c **** 
1008:Middlewares/ST/STM32_USB_Device_Library/Core/Src/usbd_core.c **** #ifdef USE_USBD_COMPOSITE
1009:Middlewares/ST/STM32_USB_Device_Library/Core/Src/usbd_core.c ****   /* Parse the table of classes in use */
1010:Middlewares/ST/STM32_USB_Device_Library/Core/Src/usbd_core.c ****   for (uint32_t i = 0; i < USBD_MAX_SUPPORTED_CLASS; i++)
1011:Middlewares/ST/STM32_USB_Device_Library/Core/Src/usbd_core.c ****   {
1012:Middlewares/ST/STM32_USB_Device_Library/Core/Src/usbd_core.c ****     /* Check if current class is in use */
1013:Middlewares/ST/STM32_USB_Device_Library/Core/Src/usbd_core.c ****     if ((pdev->tclasslist[i].Active) == 1U)
1014:Middlewares/ST/STM32_USB_Device_Library/Core/Src/usbd_core.c ****     {
1015:Middlewares/ST/STM32_USB_Device_Library/Core/Src/usbd_core.c ****       if (pdev->pClass[i] != NULL)
1016:Middlewares/ST/STM32_USB_Device_Library/Core/Src/usbd_core.c ****       {
1017:Middlewares/ST/STM32_USB_Device_Library/Core/Src/usbd_core.c ****         pdev->classId = i;
1018:Middlewares/ST/STM32_USB_Device_Library/Core/Src/usbd_core.c ****         /* Clear configuration  and De-initialize the Class process*/
1019:Middlewares/ST/STM32_USB_Device_Library/Core/Src/usbd_core.c ****         if (pdev->pClass[i]->DeInit(pdev, (uint8_t)pdev->dev_config) != 0U)
1020:Middlewares/ST/STM32_USB_Device_Library/Core/Src/usbd_core.c ****         {
1021:Middlewares/ST/STM32_USB_Device_Library/Core/Src/usbd_core.c ****           ret = USBD_FAIL;
1022:Middlewares/ST/STM32_USB_Device_Library/Core/Src/usbd_core.c ****         }
1023:Middlewares/ST/STM32_USB_Device_Library/Core/Src/usbd_core.c ****       }
1024:Middlewares/ST/STM32_USB_Device_Library/Core/Src/usbd_core.c ****     }
1025:Middlewares/ST/STM32_USB_Device_Library/Core/Src/usbd_core.c ****   }
1026:Middlewares/ST/STM32_USB_Device_Library/Core/Src/usbd_core.c **** #else
1027:Middlewares/ST/STM32_USB_Device_Library/Core/Src/usbd_core.c ****   if (pdev->pClass[0] != NULL)
 977              		.loc 1 1027 3 is_stmt 1 view .LVU279
 978              		.loc 1 1027 19 is_stmt 0 view .LVU280
 979 0008 D0F8B832 		ldr	r3, [r0, #696]
 980              		.loc 1 1027 6 view .LVU281
 981 000c 23B1     		cbz	r3, .L71
1028:Middlewares/ST/STM32_USB_Device_Library/Core/Src/usbd_core.c ****   {
1029:Middlewares/ST/STM32_USB_Device_Library/Core/Src/usbd_core.c ****     if (pdev->pClass[0]->DeInit(pdev, (uint8_t)pdev->dev_config) != 0U)
 982              		.loc 1 1029 5 is_stmt 1 view .LVU282
 983              		.loc 1 1029 24 is_stmt 0 view .LVU283
 984 000e 5B68     		ldr	r3, [r3, #4]
 985              		.loc 1 1029 9 view .LVU284
 986 0010 0179     		ldrb	r1, [r0, #4]	@ zero_extendqisi2
 987 0012 9847     		blx	r3
 988              	.LVL82:
 989              		.loc 1 1029 8 discriminator 1 view .LVU285
 990 0014 10B9     		cbnz	r0, .L74
 991              	.L70:
 992              	.LVL83:
1030:Middlewares/ST/STM32_USB_Device_Library/Core/Src/usbd_core.c ****     {
1031:Middlewares/ST/STM32_USB_Device_Library/Core/Src/usbd_core.c ****       ret = USBD_FAIL;
1032:Middlewares/ST/STM32_USB_Device_Library/Core/Src/usbd_core.c ****     }
1033:Middlewares/ST/STM32_USB_Device_Library/Core/Src/usbd_core.c ****   }
1034:Middlewares/ST/STM32_USB_Device_Library/Core/Src/usbd_core.c **** #endif /* USE_USBD_COMPOSITE */
1035:Middlewares/ST/STM32_USB_Device_Library/Core/Src/usbd_core.c **** 
1036:Middlewares/ST/STM32_USB_Device_Library/Core/Src/usbd_core.c ****   return ret;
 993              		.loc 1 1036 3 is_stmt 1 view .LVU286
1037:Middlewares/ST/STM32_USB_Device_Library/Core/Src/usbd_core.c **** }
 994              		.loc 1 1037 1 is_stmt 0 view .LVU287
 995 0016 08BD     		pop	{r3, pc}
 996              	.LVL84:
 997              	.L71:
1003:Middlewares/ST/STM32_USB_Device_Library/Core/Src/usbd_core.c **** 
 998              		.loc 1 1003 24 view .LVU288
 999 0018 0020     		movs	r0, #0
ARM GAS  C:\Users\User\AppData\Local\Temp\cc8N179E.s 			page 37


 1000              	.LVL85:
1003:Middlewares/ST/STM32_USB_Device_Library/Core/Src/usbd_core.c **** 
 1001              		.loc 1 1003 24 view .LVU289
 1002 001a FCE7     		b	.L70
 1003              	.L74:
1031:Middlewares/ST/STM32_USB_Device_Library/Core/Src/usbd_core.c ****     }
 1004              		.loc 1 1031 11 view .LVU290
 1005 001c 0320     		movs	r0, #3
 1006 001e FAE7     		b	.L70
 1007              		.cfi_endproc
 1008              	.LFE153:
 1010              		.section	.text.USBD_CoreFindIF,"ax",%progbits
 1011              		.align	1
 1012              		.global	USBD_CoreFindIF
 1013              		.syntax unified
 1014              		.thumb
 1015              		.thumb_func
 1017              	USBD_CoreFindIF:
 1018              	.LVL86:
 1019              	.LFB154:
1038:Middlewares/ST/STM32_USB_Device_Library/Core/Src/usbd_core.c **** 
1039:Middlewares/ST/STM32_USB_Device_Library/Core/Src/usbd_core.c **** /**
1040:Middlewares/ST/STM32_USB_Device_Library/Core/Src/usbd_core.c ****   * @brief  USBD_CoreFindIF
1041:Middlewares/ST/STM32_USB_Device_Library/Core/Src/usbd_core.c ****   *         return the class index relative to the selected interface
1042:Middlewares/ST/STM32_USB_Device_Library/Core/Src/usbd_core.c ****   * @param  pdev: device instance
1043:Middlewares/ST/STM32_USB_Device_Library/Core/Src/usbd_core.c ****   * @param  index : selected interface number
1044:Middlewares/ST/STM32_USB_Device_Library/Core/Src/usbd_core.c ****   * @retval index of the class using the selected interface number. OxFF if no class found.
1045:Middlewares/ST/STM32_USB_Device_Library/Core/Src/usbd_core.c ****   */
1046:Middlewares/ST/STM32_USB_Device_Library/Core/Src/usbd_core.c **** uint8_t USBD_CoreFindIF(USBD_HandleTypeDef *pdev, uint8_t index)
1047:Middlewares/ST/STM32_USB_Device_Library/Core/Src/usbd_core.c **** {
 1020              		.loc 1 1047 1 is_stmt 1 view -0
 1021              		.cfi_startproc
 1022              		@ args = 0, pretend = 0, frame = 0
 1023              		@ frame_needed = 0, uses_anonymous_args = 0
 1024              		@ link register save eliminated.
1048:Middlewares/ST/STM32_USB_Device_Library/Core/Src/usbd_core.c **** #ifdef USE_USBD_COMPOSITE
1049:Middlewares/ST/STM32_USB_Device_Library/Core/Src/usbd_core.c ****   /* Parse the table of classes in use */
1050:Middlewares/ST/STM32_USB_Device_Library/Core/Src/usbd_core.c ****   for (uint32_t i = 0U; i < USBD_MAX_SUPPORTED_CLASS; i++)
1051:Middlewares/ST/STM32_USB_Device_Library/Core/Src/usbd_core.c ****   {
1052:Middlewares/ST/STM32_USB_Device_Library/Core/Src/usbd_core.c ****     /* Check if current class is in use */
1053:Middlewares/ST/STM32_USB_Device_Library/Core/Src/usbd_core.c ****     if ((pdev->tclasslist[i].Active) == 1U)
1054:Middlewares/ST/STM32_USB_Device_Library/Core/Src/usbd_core.c ****     {
1055:Middlewares/ST/STM32_USB_Device_Library/Core/Src/usbd_core.c ****       /* Parse all interfaces listed in the current class */
1056:Middlewares/ST/STM32_USB_Device_Library/Core/Src/usbd_core.c ****       for (uint32_t j = 0U; j < pdev->tclasslist[i].NumIf; j++)
1057:Middlewares/ST/STM32_USB_Device_Library/Core/Src/usbd_core.c ****       {
1058:Middlewares/ST/STM32_USB_Device_Library/Core/Src/usbd_core.c ****         /* Check if requested Interface matches the current class interface */
1059:Middlewares/ST/STM32_USB_Device_Library/Core/Src/usbd_core.c ****         if (pdev->tclasslist[i].Ifs[j] == index)
1060:Middlewares/ST/STM32_USB_Device_Library/Core/Src/usbd_core.c ****         {
1061:Middlewares/ST/STM32_USB_Device_Library/Core/Src/usbd_core.c ****           if (pdev->pClass[i]->Setup != NULL)
1062:Middlewares/ST/STM32_USB_Device_Library/Core/Src/usbd_core.c ****           {
1063:Middlewares/ST/STM32_USB_Device_Library/Core/Src/usbd_core.c ****             return (uint8_t)i;
1064:Middlewares/ST/STM32_USB_Device_Library/Core/Src/usbd_core.c ****           }
1065:Middlewares/ST/STM32_USB_Device_Library/Core/Src/usbd_core.c ****         }
1066:Middlewares/ST/STM32_USB_Device_Library/Core/Src/usbd_core.c ****       }
1067:Middlewares/ST/STM32_USB_Device_Library/Core/Src/usbd_core.c ****     }
1068:Middlewares/ST/STM32_USB_Device_Library/Core/Src/usbd_core.c ****   }
1069:Middlewares/ST/STM32_USB_Device_Library/Core/Src/usbd_core.c **** 
ARM GAS  C:\Users\User\AppData\Local\Temp\cc8N179E.s 			page 38


1070:Middlewares/ST/STM32_USB_Device_Library/Core/Src/usbd_core.c ****   return 0xFFU;
1071:Middlewares/ST/STM32_USB_Device_Library/Core/Src/usbd_core.c **** #else
1072:Middlewares/ST/STM32_USB_Device_Library/Core/Src/usbd_core.c ****   UNUSED(pdev);
 1025              		.loc 1 1072 3 view .LVU292
1073:Middlewares/ST/STM32_USB_Device_Library/Core/Src/usbd_core.c ****   UNUSED(index);
 1026              		.loc 1 1073 3 view .LVU293
1074:Middlewares/ST/STM32_USB_Device_Library/Core/Src/usbd_core.c **** 
1075:Middlewares/ST/STM32_USB_Device_Library/Core/Src/usbd_core.c ****   return 0x00U;
 1027              		.loc 1 1075 3 view .LVU294
1076:Middlewares/ST/STM32_USB_Device_Library/Core/Src/usbd_core.c **** #endif /* USE_USBD_COMPOSITE */
1077:Middlewares/ST/STM32_USB_Device_Library/Core/Src/usbd_core.c **** }
 1028              		.loc 1 1077 1 is_stmt 0 view .LVU295
 1029 0000 0020     		movs	r0, #0
 1030              	.LVL87:
 1031              		.loc 1 1077 1 view .LVU296
 1032 0002 7047     		bx	lr
 1033              		.cfi_endproc
 1034              	.LFE154:
 1036              		.section	.text.USBD_CoreFindEP,"ax",%progbits
 1037              		.align	1
 1038              		.global	USBD_CoreFindEP
 1039              		.syntax unified
 1040              		.thumb
 1041              		.thumb_func
 1043              	USBD_CoreFindEP:
 1044              	.LVL88:
 1045              	.LFB155:
1078:Middlewares/ST/STM32_USB_Device_Library/Core/Src/usbd_core.c **** 
1079:Middlewares/ST/STM32_USB_Device_Library/Core/Src/usbd_core.c **** /**
1080:Middlewares/ST/STM32_USB_Device_Library/Core/Src/usbd_core.c ****   * @brief  USBD_CoreFindEP
1081:Middlewares/ST/STM32_USB_Device_Library/Core/Src/usbd_core.c ****   *         return the class index relative to the selected endpoint
1082:Middlewares/ST/STM32_USB_Device_Library/Core/Src/usbd_core.c ****   * @param  pdev: device instance
1083:Middlewares/ST/STM32_USB_Device_Library/Core/Src/usbd_core.c ****   * @param  index : selected endpoint number
1084:Middlewares/ST/STM32_USB_Device_Library/Core/Src/usbd_core.c ****   * @retval index of the class using the selected endpoint number. 0xFF if no class found.
1085:Middlewares/ST/STM32_USB_Device_Library/Core/Src/usbd_core.c ****   */
1086:Middlewares/ST/STM32_USB_Device_Library/Core/Src/usbd_core.c **** uint8_t USBD_CoreFindEP(USBD_HandleTypeDef *pdev, uint8_t index)
1087:Middlewares/ST/STM32_USB_Device_Library/Core/Src/usbd_core.c **** {
 1046              		.loc 1 1087 1 is_stmt 1 view -0
 1047              		.cfi_startproc
 1048              		@ args = 0, pretend = 0, frame = 0
 1049              		@ frame_needed = 0, uses_anonymous_args = 0
 1050              		@ link register save eliminated.
1088:Middlewares/ST/STM32_USB_Device_Library/Core/Src/usbd_core.c **** #ifdef USE_USBD_COMPOSITE
1089:Middlewares/ST/STM32_USB_Device_Library/Core/Src/usbd_core.c ****   /* Parse the table of classes in use */
1090:Middlewares/ST/STM32_USB_Device_Library/Core/Src/usbd_core.c ****   for (uint32_t i = 0U; i < USBD_MAX_SUPPORTED_CLASS; i++)
1091:Middlewares/ST/STM32_USB_Device_Library/Core/Src/usbd_core.c ****   {
1092:Middlewares/ST/STM32_USB_Device_Library/Core/Src/usbd_core.c ****     /* Check if current class is in use */
1093:Middlewares/ST/STM32_USB_Device_Library/Core/Src/usbd_core.c ****     if ((pdev->tclasslist[i].Active) == 1U)
1094:Middlewares/ST/STM32_USB_Device_Library/Core/Src/usbd_core.c ****     {
1095:Middlewares/ST/STM32_USB_Device_Library/Core/Src/usbd_core.c ****       /* Parse all endpoints listed in the current class */
1096:Middlewares/ST/STM32_USB_Device_Library/Core/Src/usbd_core.c ****       for (uint32_t j = 0U; j < pdev->tclasslist[i].NumEps; j++)
1097:Middlewares/ST/STM32_USB_Device_Library/Core/Src/usbd_core.c ****       {
1098:Middlewares/ST/STM32_USB_Device_Library/Core/Src/usbd_core.c ****         /* Check if requested endpoint matches the current class endpoint */
1099:Middlewares/ST/STM32_USB_Device_Library/Core/Src/usbd_core.c ****         if (pdev->tclasslist[i].Eps[j].add == index)
1100:Middlewares/ST/STM32_USB_Device_Library/Core/Src/usbd_core.c ****         {
1101:Middlewares/ST/STM32_USB_Device_Library/Core/Src/usbd_core.c ****           if (pdev->pClass[i]->Setup != NULL)
1102:Middlewares/ST/STM32_USB_Device_Library/Core/Src/usbd_core.c ****           {
ARM GAS  C:\Users\User\AppData\Local\Temp\cc8N179E.s 			page 39


1103:Middlewares/ST/STM32_USB_Device_Library/Core/Src/usbd_core.c ****             return (uint8_t)i;
1104:Middlewares/ST/STM32_USB_Device_Library/Core/Src/usbd_core.c ****           }
1105:Middlewares/ST/STM32_USB_Device_Library/Core/Src/usbd_core.c ****         }
1106:Middlewares/ST/STM32_USB_Device_Library/Core/Src/usbd_core.c ****       }
1107:Middlewares/ST/STM32_USB_Device_Library/Core/Src/usbd_core.c ****     }
1108:Middlewares/ST/STM32_USB_Device_Library/Core/Src/usbd_core.c ****   }
1109:Middlewares/ST/STM32_USB_Device_Library/Core/Src/usbd_core.c **** 
1110:Middlewares/ST/STM32_USB_Device_Library/Core/Src/usbd_core.c ****   return 0xFFU;
1111:Middlewares/ST/STM32_USB_Device_Library/Core/Src/usbd_core.c **** #else
1112:Middlewares/ST/STM32_USB_Device_Library/Core/Src/usbd_core.c ****   UNUSED(pdev);
 1051              		.loc 1 1112 3 view .LVU298
1113:Middlewares/ST/STM32_USB_Device_Library/Core/Src/usbd_core.c ****   UNUSED(index);
 1052              		.loc 1 1113 3 view .LVU299
1114:Middlewares/ST/STM32_USB_Device_Library/Core/Src/usbd_core.c **** 
1115:Middlewares/ST/STM32_USB_Device_Library/Core/Src/usbd_core.c ****   return 0x00U;
 1053              		.loc 1 1115 3 view .LVU300
1116:Middlewares/ST/STM32_USB_Device_Library/Core/Src/usbd_core.c **** #endif /* USE_USBD_COMPOSITE */
1117:Middlewares/ST/STM32_USB_Device_Library/Core/Src/usbd_core.c **** }
 1054              		.loc 1 1117 1 is_stmt 0 view .LVU301
 1055 0000 0020     		movs	r0, #0
 1056              	.LVL89:
 1057              		.loc 1 1117 1 view .LVU302
 1058 0002 7047     		bx	lr
 1059              		.cfi_endproc
 1060              	.LFE155:
 1062              		.section	.text.USBD_LL_DataOutStage,"ax",%progbits
 1063              		.align	1
 1064              		.global	USBD_LL_DataOutStage
 1065              		.syntax unified
 1066              		.thumb
 1067              		.thumb_func
 1069              	USBD_LL_DataOutStage:
 1070              	.LVL90:
 1071              	.LFB143:
 574:Middlewares/ST/STM32_USB_Device_Library/Core/Src/usbd_core.c ****   USBD_EndpointTypeDef *pep;
 1072              		.loc 1 574 1 is_stmt 1 view -0
 1073              		.cfi_startproc
 1074              		@ args = 0, pretend = 0, frame = 0
 1075              		@ frame_needed = 0, uses_anonymous_args = 0
 574:Middlewares/ST/STM32_USB_Device_Library/Core/Src/usbd_core.c ****   USBD_EndpointTypeDef *pep;
 1076              		.loc 1 574 1 is_stmt 0 view .LVU304
 1077 0000 38B5     		push	{r3, r4, r5, lr}
 1078              		.cfi_def_cfa_offset 16
 1079              		.cfi_offset 3, -16
 1080              		.cfi_offset 4, -12
 1081              		.cfi_offset 5, -8
 1082              		.cfi_offset 14, -4
 1083 0002 0446     		mov	r4, r0
 575:Middlewares/ST/STM32_USB_Device_Library/Core/Src/usbd_core.c ****   USBD_StatusTypeDef ret = USBD_OK;
 1084              		.loc 1 575 3 is_stmt 1 view .LVU305
 576:Middlewares/ST/STM32_USB_Device_Library/Core/Src/usbd_core.c ****   uint8_t idx;
 1085              		.loc 1 576 3 view .LVU306
 1086              	.LVL91:
 577:Middlewares/ST/STM32_USB_Device_Library/Core/Src/usbd_core.c **** 
 1087              		.loc 1 577 3 view .LVU307
 579:Middlewares/ST/STM32_USB_Device_Library/Core/Src/usbd_core.c ****   {
 1088              		.loc 1 579 3 view .LVU308
ARM GAS  C:\Users\User\AppData\Local\Temp\cc8N179E.s 			page 40


 579:Middlewares/ST/STM32_USB_Device_Library/Core/Src/usbd_core.c ****   {
 1089              		.loc 1 579 6 is_stmt 0 view .LVU309
 1090 0004 0D46     		mov	r5, r1
 1091 0006 0029     		cmp	r1, #0
 1092 0008 42D1     		bne	.L78
 1093 000a 1346     		mov	r3, r2
 581:Middlewares/ST/STM32_USB_Device_Library/Core/Src/usbd_core.c **** 
 1094              		.loc 1 581 5 is_stmt 1 view .LVU310
 1095              	.LVL92:
 583:Middlewares/ST/STM32_USB_Device_Library/Core/Src/usbd_core.c ****     {
 1096              		.loc 1 583 5 view .LVU311
 583:Middlewares/ST/STM32_USB_Device_Library/Core/Src/usbd_core.c ****     {
 1097              		.loc 1 583 13 is_stmt 0 view .LVU312
 1098 000c D0F89422 		ldr	r2, [r0, #660]
 1099              	.LVL93:
 583:Middlewares/ST/STM32_USB_Device_Library/Core/Src/usbd_core.c ****     {
 1100              		.loc 1 583 8 view .LVU313
 1101 0010 032A     		cmp	r2, #3
 1102 0012 01D0     		beq	.L89
 669:Middlewares/ST/STM32_USB_Device_Library/Core/Src/usbd_core.c **** }
 1103              		.loc 1 669 10 view .LVU314
 1104 0014 0846     		mov	r0, r1
 1105              	.LVL94:
 1106              	.L79:
 670:Middlewares/ST/STM32_USB_Device_Library/Core/Src/usbd_core.c **** 
 1107              		.loc 1 670 1 view .LVU315
 1108 0016 38BD     		pop	{r3, r4, r5, pc}
 1109              	.LVL95:
 1110              	.L89:
 585:Middlewares/ST/STM32_USB_Device_Library/Core/Src/usbd_core.c ****       {
 1111              		.loc 1 585 7 is_stmt 1 view .LVU316
 585:Middlewares/ST/STM32_USB_Device_Library/Core/Src/usbd_core.c ****       {
 1112              		.loc 1 585 14 is_stmt 0 view .LVU317
 1113 0018 D0F85C11 		ldr	r1, [r0, #348]
 1114              	.LVL96:
 585:Middlewares/ST/STM32_USB_Device_Library/Core/Src/usbd_core.c ****       {
 1115              		.loc 1 585 32 view .LVU318
 1116 001c D0F86021 		ldr	r2, [r0, #352]
 585:Middlewares/ST/STM32_USB_Device_Library/Core/Src/usbd_core.c ****       {
 1117              		.loc 1 585 10 view .LVU319
 1118 0020 9142     		cmp	r1, r2
 1119 0022 09D8     		bhi	.L90
 594:Middlewares/ST/STM32_USB_Device_Library/Core/Src/usbd_core.c ****         {
 1120              		.loc 1 594 9 is_stmt 1 view .LVU320
 594:Middlewares/ST/STM32_USB_Device_Library/Core/Src/usbd_core.c ****         {
 1121              		.loc 1 594 30 is_stmt 0 view .LVU321
 1122 0024 90F8AA32 		ldrb	r3, [r0, #682]	@ zero_extendqisi2
 1123              	.LVL97:
 594:Middlewares/ST/STM32_USB_Device_Library/Core/Src/usbd_core.c ****         {
 1124              		.loc 1 594 30 view .LVU322
 1125 0028 03F01F03 		and	r3, r3, #31
 594:Middlewares/ST/STM32_USB_Device_Library/Core/Src/usbd_core.c ****         {
 1126              		.loc 1 594 9 view .LVU323
 1127 002c 012B     		cmp	r3, #1
 1128 002e 0ED0     		beq	.L81
 1129 0030 022B     		cmp	r3, #2
 1130 0032 1BD0     		beq	.L82
ARM GAS  C:\Users\User\AppData\Local\Temp\cc8N179E.s 			page 41


 1131 0034 2846     		mov	r0, r5
 1132              	.LVL98:
 594:Middlewares/ST/STM32_USB_Device_Library/Core/Src/usbd_core.c ****         {
 1133              		.loc 1 594 9 view .LVU324
 1134 0036 0FE0     		b	.L83
 1135              	.LVL99:
 1136              	.L90:
 587:Middlewares/ST/STM32_USB_Device_Library/Core/Src/usbd_core.c **** 
 1137              		.loc 1 587 9 is_stmt 1 view .LVU325
 587:Middlewares/ST/STM32_USB_Device_Library/Core/Src/usbd_core.c **** 
 1138              		.loc 1 587 25 is_stmt 0 view .LVU326
 1139 0038 891A     		subs	r1, r1, r2
 1140 003a C0F85C11 		str	r1, [r0, #348]
 589:Middlewares/ST/STM32_USB_Device_Library/Core/Src/usbd_core.c ****       }
 1141              		.loc 1 589 9 is_stmt 1 view .LVU327
 589:Middlewares/ST/STM32_USB_Device_Library/Core/Src/usbd_core.c ****       }
 1142              		.loc 1 589 15 is_stmt 0 view .LVU328
 1143 003e 8A42     		cmp	r2, r1
 1144 0040 28BF     		it	cs
 1145 0042 0A46     		movcs	r2, r1
 1146 0044 1946     		mov	r1, r3
 1147 0046 FFF7FEFF 		bl	USBD_CtlContinueRx
 1148              	.LVL100:
 669:Middlewares/ST/STM32_USB_Device_Library/Core/Src/usbd_core.c **** }
 1149              		.loc 1 669 10 view .LVU329
 1150 004a 2846     		mov	r0, r5
 1151 004c E3E7     		b	.L79
 1152              	.LVL101:
 1153              	.L81:
 603:Middlewares/ST/STM32_USB_Device_Library/Core/Src/usbd_core.c ****             break;
 1154              		.loc 1 603 13 is_stmt 1 view .LVU330
 603:Middlewares/ST/STM32_USB_Device_Library/Core/Src/usbd_core.c ****             break;
 1155              		.loc 1 603 19 is_stmt 0 view .LVU331
 1156 004e 90F8AE12 		ldrb	r1, [r0, #686]	@ zero_extendqisi2
 1157 0052 FFF7FEFF 		bl	USBD_CoreFindIF
 1158              	.LVL102:
 604:Middlewares/ST/STM32_USB_Device_Library/Core/Src/usbd_core.c **** 
 1159              		.loc 1 604 13 is_stmt 1 view .LVU332
 1160              	.L84:
 616:Middlewares/ST/STM32_USB_Device_Library/Core/Src/usbd_core.c ****         {
 1161              		.loc 1 616 9 view .LVU333
 616:Middlewares/ST/STM32_USB_Device_Library/Core/Src/usbd_core.c ****         {
 1162              		.loc 1 616 12 is_stmt 0 view .LVU334
 1163 0056 20B9     		cbnz	r0, .L85
 1164              	.LVL103:
 1165              	.L83:
 619:Middlewares/ST/STM32_USB_Device_Library/Core/Src/usbd_core.c ****           {
 1166              		.loc 1 619 11 is_stmt 1 view .LVU335
 619:Middlewares/ST/STM32_USB_Device_Library/Core/Src/usbd_core.c ****           {
 1167              		.loc 1 619 19 is_stmt 0 view .LVU336
 1168 0058 94F89C32 		ldrb	r3, [r4, #668]	@ zero_extendqisi2
 1169 005c DBB2     		uxtb	r3, r3
 619:Middlewares/ST/STM32_USB_Device_Library/Core/Src/usbd_core.c ****           {
 1170              		.loc 1 619 14 view .LVU337
 1171 005e 032B     		cmp	r3, #3
 1172 0060 09D0     		beq	.L91
 1173              	.L85:
ARM GAS  C:\Users\User\AppData\Local\Temp\cc8N179E.s 			page 42


 629:Middlewares/ST/STM32_USB_Device_Library/Core/Src/usbd_core.c ****       }
 1174              		.loc 1 629 9 is_stmt 1 view .LVU338
 629:Middlewares/ST/STM32_USB_Device_Library/Core/Src/usbd_core.c ****       }
 1175              		.loc 1 629 15 is_stmt 0 view .LVU339
 1176 0062 2046     		mov	r0, r4
 1177 0064 FFF7FEFF 		bl	USBD_CtlSendStatus
 1178              	.LVL104:
 669:Middlewares/ST/STM32_USB_Device_Library/Core/Src/usbd_core.c **** }
 1179              		.loc 1 669 10 view .LVU340
 1180 0068 2846     		mov	r0, r5
 1181 006a D4E7     		b	.L79
 1182              	.LVL105:
 1183              	.L82:
 607:Middlewares/ST/STM32_USB_Device_Library/Core/Src/usbd_core.c ****             break;
 1184              		.loc 1 607 13 is_stmt 1 view .LVU341
 607:Middlewares/ST/STM32_USB_Device_Library/Core/Src/usbd_core.c ****             break;
 1185              		.loc 1 607 19 is_stmt 0 view .LVU342
 1186 006c 90F8AE12 		ldrb	r1, [r0, #686]	@ zero_extendqisi2
 1187 0070 FFF7FEFF 		bl	USBD_CoreFindEP
 1188              	.LVL106:
 608:Middlewares/ST/STM32_USB_Device_Library/Core/Src/usbd_core.c **** 
 1189              		.loc 1 608 13 is_stmt 1 view .LVU343
 1190 0074 EFE7     		b	.L84
 1191              	.LVL107:
 1192              	.L91:
 621:Middlewares/ST/STM32_USB_Device_Library/Core/Src/usbd_core.c ****             {
 1193              		.loc 1 621 13 view .LVU344
 621:Middlewares/ST/STM32_USB_Device_Library/Core/Src/usbd_core.c ****             {
 1194              		.loc 1 621 29 is_stmt 0 view .LVU345
 1195 0076 00F1AE03 		add	r3, r0, #174
 1196 007a 54F82330 		ldr	r3, [r4, r3, lsl #2]
 621:Middlewares/ST/STM32_USB_Device_Library/Core/Src/usbd_core.c ****             {
 1197              		.loc 1 621 34 view .LVU346
 1198 007e 1A69     		ldr	r2, [r3, #16]
 621:Middlewares/ST/STM32_USB_Device_Library/Core/Src/usbd_core.c ****             {
 1199              		.loc 1 621 16 view .LVU347
 1200 0080 002A     		cmp	r2, #0
 1201 0082 EED0     		beq	.L85
 623:Middlewares/ST/STM32_USB_Device_Library/Core/Src/usbd_core.c ****               pdev->pClass[idx]->EP0_RxReady(pdev);
 1202              		.loc 1 623 15 is_stmt 1 view .LVU348
 623:Middlewares/ST/STM32_USB_Device_Library/Core/Src/usbd_core.c ****               pdev->pClass[idx]->EP0_RxReady(pdev);
 1203              		.loc 1 623 29 is_stmt 0 view .LVU349
 1204 0084 C4F8D402 		str	r0, [r4, #724]
 624:Middlewares/ST/STM32_USB_Device_Library/Core/Src/usbd_core.c ****             }
 1205              		.loc 1 624 15 is_stmt 1 view .LVU350
 624:Middlewares/ST/STM32_USB_Device_Library/Core/Src/usbd_core.c ****             }
 1206              		.loc 1 624 32 is_stmt 0 view .LVU351
 1207 0088 1B69     		ldr	r3, [r3, #16]
 624:Middlewares/ST/STM32_USB_Device_Library/Core/Src/usbd_core.c ****             }
 1208              		.loc 1 624 15 view .LVU352
 1209 008a 2046     		mov	r0, r4
 1210 008c 9847     		blx	r3
 1211              	.LVL108:
 1212 008e E8E7     		b	.L85
 1213              	.LVL109:
 1214              	.L78:
 649:Middlewares/ST/STM32_USB_Device_Library/Core/Src/usbd_core.c **** 
ARM GAS  C:\Users\User\AppData\Local\Temp\cc8N179E.s 			page 43


 1215              		.loc 1 649 5 is_stmt 1 view .LVU353
 649:Middlewares/ST/STM32_USB_Device_Library/Core/Src/usbd_core.c **** 
 1216              		.loc 1 649 11 is_stmt 0 view .LVU354
 1217 0090 01F07F01 		and	r1, r1, #127
 1218              	.LVL110:
 649:Middlewares/ST/STM32_USB_Device_Library/Core/Src/usbd_core.c **** 
 1219              		.loc 1 649 11 view .LVU355
 1220 0094 FFF7FEFF 		bl	USBD_CoreFindEP
 1221              	.LVL111:
 651:Middlewares/ST/STM32_USB_Device_Library/Core/Src/usbd_core.c ****     {
 1222              		.loc 1 651 5 is_stmt 1 view .LVU356
 651:Middlewares/ST/STM32_USB_Device_Library/Core/Src/usbd_core.c ****     {
 1223              		.loc 1 651 8 is_stmt 0 view .LVU357
 1224 0098 90B9     		cbnz	r0, .L87
 654:Middlewares/ST/STM32_USB_Device_Library/Core/Src/usbd_core.c ****       {
 1225              		.loc 1 654 7 is_stmt 1 view .LVU358
 654:Middlewares/ST/STM32_USB_Device_Library/Core/Src/usbd_core.c ****       {
 1226              		.loc 1 654 15 is_stmt 0 view .LVU359
 1227 009a 94F89C32 		ldrb	r3, [r4, #668]	@ zero_extendqisi2
 1228 009e DBB2     		uxtb	r3, r3
 654:Middlewares/ST/STM32_USB_Device_Library/Core/Src/usbd_core.c ****       {
 1229              		.loc 1 654 10 view .LVU360
 1230 00a0 032B     		cmp	r3, #3
 1231 00a2 B8D1     		bne	.L79
 656:Middlewares/ST/STM32_USB_Device_Library/Core/Src/usbd_core.c ****         {
 1232              		.loc 1 656 9 is_stmt 1 view .LVU361
 656:Middlewares/ST/STM32_USB_Device_Library/Core/Src/usbd_core.c ****         {
 1233              		.loc 1 656 25 is_stmt 0 view .LVU362
 1234 00a4 00F1AE03 		add	r3, r0, #174
 1235 00a8 54F82330 		ldr	r3, [r4, r3, lsl #2]
 656:Middlewares/ST/STM32_USB_Device_Library/Core/Src/usbd_core.c ****         {
 1236              		.loc 1 656 30 view .LVU363
 1237 00ac 9A69     		ldr	r2, [r3, #24]
 656:Middlewares/ST/STM32_USB_Device_Library/Core/Src/usbd_core.c ****         {
 1238              		.loc 1 656 12 view .LVU364
 1239 00ae 002A     		cmp	r2, #0
 1240 00b0 B1D0     		beq	.L79
 658:Middlewares/ST/STM32_USB_Device_Library/Core/Src/usbd_core.c ****           ret = (USBD_StatusTypeDef)pdev->pClass[idx]->DataOut(pdev, epnum);
 1241              		.loc 1 658 11 is_stmt 1 view .LVU365
 658:Middlewares/ST/STM32_USB_Device_Library/Core/Src/usbd_core.c ****           ret = (USBD_StatusTypeDef)pdev->pClass[idx]->DataOut(pdev, epnum);
 1242              		.loc 1 658 25 is_stmt 0 view .LVU366
 1243 00b2 C4F8D402 		str	r0, [r4, #724]
 659:Middlewares/ST/STM32_USB_Device_Library/Core/Src/usbd_core.c ****         }
 1244              		.loc 1 659 11 is_stmt 1 view .LVU367
 659:Middlewares/ST/STM32_USB_Device_Library/Core/Src/usbd_core.c ****         }
 1245              		.loc 1 659 54 is_stmt 0 view .LVU368
 1246 00b6 9B69     		ldr	r3, [r3, #24]
 659:Middlewares/ST/STM32_USB_Device_Library/Core/Src/usbd_core.c ****         }
 1247              		.loc 1 659 37 view .LVU369
 1248 00b8 2946     		mov	r1, r5
 1249 00ba 2046     		mov	r0, r4
 1250              	.LVL112:
 659:Middlewares/ST/STM32_USB_Device_Library/Core/Src/usbd_core.c ****         }
 1251              		.loc 1 659 37 view .LVU370
 1252 00bc 9847     		blx	r3
 1253              	.LVL113:
 662:Middlewares/ST/STM32_USB_Device_Library/Core/Src/usbd_core.c ****       {
ARM GAS  C:\Users\User\AppData\Local\Temp\cc8N179E.s 			page 44


 1254              		.loc 1 662 7 is_stmt 1 view .LVU371
 1255 00be AAE7     		b	.L79
 1256              	.LVL114:
 1257              	.L87:
 669:Middlewares/ST/STM32_USB_Device_Library/Core/Src/usbd_core.c **** }
 1258              		.loc 1 669 10 is_stmt 0 view .LVU372
 1259 00c0 0020     		movs	r0, #0
 1260              	.LVL115:
 669:Middlewares/ST/STM32_USB_Device_Library/Core/Src/usbd_core.c **** }
 1261              		.loc 1 669 10 view .LVU373
 1262 00c2 A8E7     		b	.L79
 1263              		.cfi_endproc
 1264              	.LFE143:
 1266              		.section	.text.USBD_LL_DataInStage,"ax",%progbits
 1267              		.align	1
 1268              		.global	USBD_LL_DataInStage
 1269              		.syntax unified
 1270              		.thumb
 1271              		.thumb_func
 1273              	USBD_LL_DataInStage:
 1274              	.LVL116:
 1275              	.LFB144:
 681:Middlewares/ST/STM32_USB_Device_Library/Core/Src/usbd_core.c ****   USBD_EndpointTypeDef *pep;
 1276              		.loc 1 681 1 is_stmt 1 view -0
 1277              		.cfi_startproc
 1278              		@ args = 0, pretend = 0, frame = 0
 1279              		@ frame_needed = 0, uses_anonymous_args = 0
 681:Middlewares/ST/STM32_USB_Device_Library/Core/Src/usbd_core.c ****   USBD_EndpointTypeDef *pep;
 1280              		.loc 1 681 1 is_stmt 0 view .LVU375
 1281 0000 38B5     		push	{r3, r4, r5, lr}
 1282              		.cfi_def_cfa_offset 16
 1283              		.cfi_offset 3, -16
 1284              		.cfi_offset 4, -12
 1285              		.cfi_offset 5, -8
 1286              		.cfi_offset 14, -4
 1287 0002 0446     		mov	r4, r0
 682:Middlewares/ST/STM32_USB_Device_Library/Core/Src/usbd_core.c ****   USBD_StatusTypeDef ret;
 1288              		.loc 1 682 3 is_stmt 1 view .LVU376
 683:Middlewares/ST/STM32_USB_Device_Library/Core/Src/usbd_core.c ****   uint8_t idx;
 1289              		.loc 1 683 3 view .LVU377
 684:Middlewares/ST/STM32_USB_Device_Library/Core/Src/usbd_core.c **** 
 1290              		.loc 1 684 3 view .LVU378
 686:Middlewares/ST/STM32_USB_Device_Library/Core/Src/usbd_core.c ****   {
 1291              		.loc 1 686 3 view .LVU379
 686:Middlewares/ST/STM32_USB_Device_Library/Core/Src/usbd_core.c ****   {
 1292              		.loc 1 686 6 is_stmt 0 view .LVU380
 1293 0004 0D46     		mov	r5, r1
 1294 0006 0029     		cmp	r1, #0
 1295 0008 4BD1     		bne	.L93
 1296 000a 1346     		mov	r3, r2
 688:Middlewares/ST/STM32_USB_Device_Library/Core/Src/usbd_core.c **** 
 1297              		.loc 1 688 5 is_stmt 1 view .LVU381
 1298              	.LVL117:
 690:Middlewares/ST/STM32_USB_Device_Library/Core/Src/usbd_core.c ****     {
 1299              		.loc 1 690 5 view .LVU382
 690:Middlewares/ST/STM32_USB_Device_Library/Core/Src/usbd_core.c ****     {
 1300              		.loc 1 690 13 is_stmt 0 view .LVU383
ARM GAS  C:\Users\User\AppData\Local\Temp\cc8N179E.s 			page 45


 1301 000c D0F89422 		ldr	r2, [r0, #660]
 1302              	.LVL118:
 690:Middlewares/ST/STM32_USB_Device_Library/Core/Src/usbd_core.c ****     {
 1303              		.loc 1 690 8 view .LVU384
 1304 0010 022A     		cmp	r2, #2
 1305 0012 07D0     		beq	.L101
 1306              	.LVL119:
 1307              	.L94:
 738:Middlewares/ST/STM32_USB_Device_Library/Core/Src/usbd_core.c **** 
 1308              		.loc 1 738 5 is_stmt 1 view .LVU385
 740:Middlewares/ST/STM32_USB_Device_Library/Core/Src/usbd_core.c ****     {
 1309              		.loc 1 740 5 view .LVU386
 740:Middlewares/ST/STM32_USB_Device_Library/Core/Src/usbd_core.c ****     {
 1310              		.loc 1 740 13 is_stmt 0 view .LVU387
 1311 0014 94F8A002 		ldrb	r0, [r4, #672]	@ zero_extendqisi2
 740:Middlewares/ST/STM32_USB_Device_Library/Core/Src/usbd_core.c ****     {
 1312              		.loc 1 740 8 view .LVU388
 1313 0018 18B1     		cbz	r0, .L98
 742:Middlewares/ST/STM32_USB_Device_Library/Core/Src/usbd_core.c ****       pdev->dev_test_mode = 0U;
 1314              		.loc 1 742 7 is_stmt 1 view .LVU389
 743:Middlewares/ST/STM32_USB_Device_Library/Core/Src/usbd_core.c ****     }
 1315              		.loc 1 743 7 view .LVU390
 743:Middlewares/ST/STM32_USB_Device_Library/Core/Src/usbd_core.c ****     }
 1316              		.loc 1 743 27 is_stmt 0 view .LVU391
 1317 001a 0023     		movs	r3, #0
 1318 001c 84F8A032 		strb	r3, [r4, #672]
 770:Middlewares/ST/STM32_USB_Device_Library/Core/Src/usbd_core.c **** }
 1319              		.loc 1 770 10 view .LVU392
 1320 0020 2846     		mov	r0, r5
 1321              	.LVL120:
 1322              	.L98:
 771:Middlewares/ST/STM32_USB_Device_Library/Core/Src/usbd_core.c **** 
 1323              		.loc 1 771 1 view .LVU393
 1324 0022 38BD     		pop	{r3, r4, r5, pc}
 1325              	.LVL121:
 1326              	.L101:
 692:Middlewares/ST/STM32_USB_Device_Library/Core/Src/usbd_core.c ****       {
 1327              		.loc 1 692 7 is_stmt 1 view .LVU394
 692:Middlewares/ST/STM32_USB_Device_Library/Core/Src/usbd_core.c ****       {
 1328              		.loc 1 692 14 is_stmt 0 view .LVU395
 1329 0024 C269     		ldr	r2, [r0, #28]
 692:Middlewares/ST/STM32_USB_Device_Library/Core/Src/usbd_core.c ****       {
 1330              		.loc 1 692 32 view .LVU396
 1331 0026 016A     		ldr	r1, [r0, #32]
 1332              	.LVL122:
 692:Middlewares/ST/STM32_USB_Device_Library/Core/Src/usbd_core.c ****       {
 1333              		.loc 1 692 10 view .LVU397
 1334 0028 8A42     		cmp	r2, r1
 1335 002a 0ED8     		bhi	.L102
 704:Middlewares/ST/STM32_USB_Device_Library/Core/Src/usbd_core.c ****             (pep->total_length >= pep->maxpacket) &&
 1336              		.loc 1 704 9 is_stmt 1 view .LVU398
 704:Middlewares/ST/STM32_USB_Device_Library/Core/Src/usbd_core.c ****             (pep->total_length >= pep->maxpacket) &&
 1337              		.loc 1 704 12 is_stmt 0 view .LVU399
 1338 002c 8A42     		cmp	r2, r1
 1339 002e 18D0     		beq	.L103
 1340              	.LVL123:
 1341              	.L96:
ARM GAS  C:\Users\User\AppData\Local\Temp\cc8N179E.s 			page 46


 716:Middlewares/ST/STM32_USB_Device_Library/Core/Src/usbd_core.c ****           {
 1342              		.loc 1 716 11 is_stmt 1 view .LVU400
 716:Middlewares/ST/STM32_USB_Device_Library/Core/Src/usbd_core.c ****           {
 1343              		.loc 1 716 19 is_stmt 0 view .LVU401
 1344 0030 94F89C32 		ldrb	r3, [r4, #668]	@ zero_extendqisi2
 1345 0034 DBB2     		uxtb	r3, r3
 716:Middlewares/ST/STM32_USB_Device_Library/Core/Src/usbd_core.c ****           {
 1346              		.loc 1 716 14 view .LVU402
 1347 0036 032B     		cmp	r3, #3
 1348 0038 27D0     		beq	.L104
 1349              	.LVL124:
 1350              	.L97:
 724:Middlewares/ST/STM32_USB_Device_Library/Core/Src/usbd_core.c ****           (void)USBD_CtlReceiveStatus(pdev);
 1351              		.loc 1 724 11 is_stmt 1 view .LVU403
 724:Middlewares/ST/STM32_USB_Device_Library/Core/Src/usbd_core.c ****           (void)USBD_CtlReceiveStatus(pdev);
 1352              		.loc 1 724 17 is_stmt 0 view .LVU404
 1353 003a 8021     		movs	r1, #128
 1354 003c 2046     		mov	r0, r4
 1355 003e FFF7FEFF 		bl	USBD_LL_StallEP
 1356              	.LVL125:
 725:Middlewares/ST/STM32_USB_Device_Library/Core/Src/usbd_core.c ****         }
 1357              		.loc 1 725 11 is_stmt 1 view .LVU405
 725:Middlewares/ST/STM32_USB_Device_Library/Core/Src/usbd_core.c ****         }
 1358              		.loc 1 725 17 is_stmt 0 view .LVU406
 1359 0042 2046     		mov	r0, r4
 1360 0044 FFF7FEFF 		bl	USBD_CtlReceiveStatus
 1361              	.LVL126:
 1362 0048 E4E7     		b	.L94
 1363              	.LVL127:
 1364              	.L102:
 694:Middlewares/ST/STM32_USB_Device_Library/Core/Src/usbd_core.c **** 
 1365              		.loc 1 694 9 is_stmt 1 view .LVU407
 694:Middlewares/ST/STM32_USB_Device_Library/Core/Src/usbd_core.c **** 
 1366              		.loc 1 694 25 is_stmt 0 view .LVU408
 1367 004a 521A     		subs	r2, r2, r1
 1368 004c C261     		str	r2, [r0, #28]
 696:Middlewares/ST/STM32_USB_Device_Library/Core/Src/usbd_core.c **** 
 1369              		.loc 1 696 9 is_stmt 1 view .LVU409
 696:Middlewares/ST/STM32_USB_Device_Library/Core/Src/usbd_core.c **** 
 1370              		.loc 1 696 15 is_stmt 0 view .LVU410
 1371 004e 1946     		mov	r1, r3
 1372 0050 FFF7FEFF 		bl	USBD_CtlContinueSendData
 1373              	.LVL128:
 699:Middlewares/ST/STM32_USB_Device_Library/Core/Src/usbd_core.c ****       }
 1374              		.loc 1 699 9 is_stmt 1 view .LVU411
 699:Middlewares/ST/STM32_USB_Device_Library/Core/Src/usbd_core.c ****       }
 1375              		.loc 1 699 15 is_stmt 0 view .LVU412
 1376 0054 0023     		movs	r3, #0
 1377 0056 1A46     		mov	r2, r3
 1378 0058 1946     		mov	r1, r3
 1379 005a 2046     		mov	r0, r4
 1380 005c FFF7FEFF 		bl	USBD_LL_PrepareReceive
 1381              	.LVL129:
 1382 0060 D8E7     		b	.L94
 1383              	.LVL130:
 1384              	.L103:
 705:Middlewares/ST/STM32_USB_Device_Library/Core/Src/usbd_core.c ****             (pep->total_length < pdev->ep0_data_len))
ARM GAS  C:\Users\User\AppData\Local\Temp\cc8N179E.s 			page 47


 1385              		.loc 1 705 17 view .LVU413
 1386 0062 8369     		ldr	r3, [r0, #24]
 1387              	.LVL131:
 704:Middlewares/ST/STM32_USB_Device_Library/Core/Src/usbd_core.c ****             (pep->total_length >= pep->maxpacket) &&
 1388              		.loc 1 704 49 discriminator 1 view .LVU414
 1389 0064 9942     		cmp	r1, r3
 1390 0066 E3D8     		bhi	.L96
 706:Middlewares/ST/STM32_USB_Device_Library/Core/Src/usbd_core.c ****         {
 1391              		.loc 1 706 38 view .LVU415
 1392 0068 D0F89822 		ldr	r2, [r0, #664]
 705:Middlewares/ST/STM32_USB_Device_Library/Core/Src/usbd_core.c ****             (pep->total_length < pdev->ep0_data_len))
 1393              		.loc 1 705 51 view .LVU416
 1394 006c 9342     		cmp	r3, r2
 1395 006e DFD2     		bcs	.L96
 708:Middlewares/ST/STM32_USB_Device_Library/Core/Src/usbd_core.c ****           pdev->ep0_data_len = 0U;
 1396              		.loc 1 708 11 is_stmt 1 view .LVU417
 708:Middlewares/ST/STM32_USB_Device_Library/Core/Src/usbd_core.c ****           pdev->ep0_data_len = 0U;
 1397              		.loc 1 708 17 is_stmt 0 view .LVU418
 1398 0070 0022     		movs	r2, #0
 1399 0072 1146     		mov	r1, r2
 1400 0074 FFF7FEFF 		bl	USBD_CtlContinueSendData
 1401              	.LVL132:
 709:Middlewares/ST/STM32_USB_Device_Library/Core/Src/usbd_core.c **** 
 1402              		.loc 1 709 11 is_stmt 1 view .LVU419
 709:Middlewares/ST/STM32_USB_Device_Library/Core/Src/usbd_core.c **** 
 1403              		.loc 1 709 30 is_stmt 0 view .LVU420
 1404 0078 0021     		movs	r1, #0
 1405 007a C4F89812 		str	r1, [r4, #664]
 712:Middlewares/ST/STM32_USB_Device_Library/Core/Src/usbd_core.c ****         }
 1406              		.loc 1 712 11 is_stmt 1 view .LVU421
 712:Middlewares/ST/STM32_USB_Device_Library/Core/Src/usbd_core.c ****         }
 1407              		.loc 1 712 17 is_stmt 0 view .LVU422
 1408 007e 0B46     		mov	r3, r1
 1409 0080 0A46     		mov	r2, r1
 1410 0082 2046     		mov	r0, r4
 1411 0084 FFF7FEFF 		bl	USBD_LL_PrepareReceive
 1412              	.LVL133:
 712:Middlewares/ST/STM32_USB_Device_Library/Core/Src/usbd_core.c ****         }
 1413              		.loc 1 712 11 view .LVU423
 1414 0088 C4E7     		b	.L94
 1415              	.LVL134:
 1416              	.L104:
 718:Middlewares/ST/STM32_USB_Device_Library/Core/Src/usbd_core.c ****             {
 1417              		.loc 1 718 13 is_stmt 1 view .LVU424
 718:Middlewares/ST/STM32_USB_Device_Library/Core/Src/usbd_core.c ****             {
 1418              		.loc 1 718 29 is_stmt 0 view .LVU425
 1419 008a D4F8B832 		ldr	r3, [r4, #696]
 718:Middlewares/ST/STM32_USB_Device_Library/Core/Src/usbd_core.c ****             {
 1420              		.loc 1 718 32 view .LVU426
 1421 008e DA68     		ldr	r2, [r3, #12]
 718:Middlewares/ST/STM32_USB_Device_Library/Core/Src/usbd_core.c ****             {
 1422              		.loc 1 718 16 view .LVU427
 1423 0090 002A     		cmp	r2, #0
 1424 0092 D2D0     		beq	.L97
 720:Middlewares/ST/STM32_USB_Device_Library/Core/Src/usbd_core.c ****               pdev->pClass[0]->EP0_TxSent(pdev);
 1425              		.loc 1 720 15 is_stmt 1 view .LVU428
 720:Middlewares/ST/STM32_USB_Device_Library/Core/Src/usbd_core.c ****               pdev->pClass[0]->EP0_TxSent(pdev);
ARM GAS  C:\Users\User\AppData\Local\Temp\cc8N179E.s 			page 48


 1426              		.loc 1 720 29 is_stmt 0 view .LVU429
 1427 0094 0022     		movs	r2, #0
 1428 0096 C4F8D422 		str	r2, [r4, #724]
 721:Middlewares/ST/STM32_USB_Device_Library/Core/Src/usbd_core.c ****             }
 1429              		.loc 1 721 15 is_stmt 1 view .LVU430
 721:Middlewares/ST/STM32_USB_Device_Library/Core/Src/usbd_core.c ****             }
 1430              		.loc 1 721 30 is_stmt 0 view .LVU431
 1431 009a DB68     		ldr	r3, [r3, #12]
 721:Middlewares/ST/STM32_USB_Device_Library/Core/Src/usbd_core.c ****             }
 1432              		.loc 1 721 15 view .LVU432
 1433 009c 2046     		mov	r0, r4
 1434              	.LVL135:
 721:Middlewares/ST/STM32_USB_Device_Library/Core/Src/usbd_core.c ****             }
 1435              		.loc 1 721 15 view .LVU433
 1436 009e 9847     		blx	r3
 1437              	.LVL136:
 1438 00a0 CBE7     		b	.L97
 1439              	.LVL137:
 1440              	.L93:
 749:Middlewares/ST/STM32_USB_Device_Library/Core/Src/usbd_core.c **** 
 1441              		.loc 1 749 5 is_stmt 1 view .LVU434
 749:Middlewares/ST/STM32_USB_Device_Library/Core/Src/usbd_core.c **** 
 1442              		.loc 1 749 11 is_stmt 0 view .LVU435
 1443 00a2 41F08001 		orr	r1, r1, #128
 1444              	.LVL138:
 749:Middlewares/ST/STM32_USB_Device_Library/Core/Src/usbd_core.c **** 
 1445              		.loc 1 749 11 view .LVU436
 1446 00a6 FFF7FEFF 		bl	USBD_CoreFindEP
 1447              	.LVL139:
 751:Middlewares/ST/STM32_USB_Device_Library/Core/Src/usbd_core.c ****     {
 1448              		.loc 1 751 5 is_stmt 1 view .LVU437
 751:Middlewares/ST/STM32_USB_Device_Library/Core/Src/usbd_core.c ****     {
 1449              		.loc 1 751 8 is_stmt 0 view .LVU438
 1450 00aa 90B9     		cbnz	r0, .L99
 754:Middlewares/ST/STM32_USB_Device_Library/Core/Src/usbd_core.c ****       {
 1451              		.loc 1 754 7 is_stmt 1 view .LVU439
 754:Middlewares/ST/STM32_USB_Device_Library/Core/Src/usbd_core.c ****       {
 1452              		.loc 1 754 15 is_stmt 0 view .LVU440
 1453 00ac 94F89C32 		ldrb	r3, [r4, #668]	@ zero_extendqisi2
 1454 00b0 DBB2     		uxtb	r3, r3
 754:Middlewares/ST/STM32_USB_Device_Library/Core/Src/usbd_core.c ****       {
 1455              		.loc 1 754 10 view .LVU441
 1456 00b2 032B     		cmp	r3, #3
 1457 00b4 B5D1     		bne	.L98
 756:Middlewares/ST/STM32_USB_Device_Library/Core/Src/usbd_core.c ****         {
 1458              		.loc 1 756 9 is_stmt 1 view .LVU442
 756:Middlewares/ST/STM32_USB_Device_Library/Core/Src/usbd_core.c ****         {
 1459              		.loc 1 756 25 is_stmt 0 view .LVU443
 1460 00b6 00F1AE03 		add	r3, r0, #174
 1461 00ba 54F82330 		ldr	r3, [r4, r3, lsl #2]
 756:Middlewares/ST/STM32_USB_Device_Library/Core/Src/usbd_core.c ****         {
 1462              		.loc 1 756 30 view .LVU444
 1463 00be 5A69     		ldr	r2, [r3, #20]
 756:Middlewares/ST/STM32_USB_Device_Library/Core/Src/usbd_core.c ****         {
 1464              		.loc 1 756 12 view .LVU445
 1465 00c0 002A     		cmp	r2, #0
 1466 00c2 AED0     		beq	.L98
ARM GAS  C:\Users\User\AppData\Local\Temp\cc8N179E.s 			page 49


 758:Middlewares/ST/STM32_USB_Device_Library/Core/Src/usbd_core.c ****           ret = (USBD_StatusTypeDef)pdev->pClass[idx]->DataIn(pdev, epnum);
 1467              		.loc 1 758 11 is_stmt 1 view .LVU446
 758:Middlewares/ST/STM32_USB_Device_Library/Core/Src/usbd_core.c ****           ret = (USBD_StatusTypeDef)pdev->pClass[idx]->DataIn(pdev, epnum);
 1468              		.loc 1 758 25 is_stmt 0 view .LVU447
 1469 00c4 C4F8D402 		str	r0, [r4, #724]
 759:Middlewares/ST/STM32_USB_Device_Library/Core/Src/usbd_core.c **** 
 1470              		.loc 1 759 11 is_stmt 1 view .LVU448
 759:Middlewares/ST/STM32_USB_Device_Library/Core/Src/usbd_core.c **** 
 1471              		.loc 1 759 54 is_stmt 0 view .LVU449
 1472 00c8 5B69     		ldr	r3, [r3, #20]
 759:Middlewares/ST/STM32_USB_Device_Library/Core/Src/usbd_core.c **** 
 1473              		.loc 1 759 37 view .LVU450
 1474 00ca 2946     		mov	r1, r5
 1475 00cc 2046     		mov	r0, r4
 1476              	.LVL140:
 759:Middlewares/ST/STM32_USB_Device_Library/Core/Src/usbd_core.c **** 
 1477              		.loc 1 759 37 view .LVU451
 1478 00ce 9847     		blx	r3
 1479              	.LVL141:
 761:Middlewares/ST/STM32_USB_Device_Library/Core/Src/usbd_core.c ****           {
 1480              		.loc 1 761 11 is_stmt 1 view .LVU452
 1481 00d0 A7E7     		b	.L98
 1482              	.LVL142:
 1483              	.L99:
 770:Middlewares/ST/STM32_USB_Device_Library/Core/Src/usbd_core.c **** }
 1484              		.loc 1 770 10 is_stmt 0 view .LVU453
 1485 00d2 0020     		movs	r0, #0
 1486              	.LVL143:
 770:Middlewares/ST/STM32_USB_Device_Library/Core/Src/usbd_core.c **** }
 1487              		.loc 1 770 10 view .LVU454
 1488 00d4 A5E7     		b	.L98
 1489              		.cfi_endproc
 1490              	.LFE144:
 1492              		.section	.text.USBD_GetNextDesc,"ax",%progbits
 1493              		.align	1
 1494              		.global	USBD_GetNextDesc
 1495              		.syntax unified
 1496              		.thumb
 1497              		.thumb_func
 1499              	USBD_GetNextDesc:
 1500              	.LVL144:
 1501              	.LFB157:
1118:Middlewares/ST/STM32_USB_Device_Library/Core/Src/usbd_core.c **** 
1119:Middlewares/ST/STM32_USB_Device_Library/Core/Src/usbd_core.c **** #ifdef USE_USBD_COMPOSITE
1120:Middlewares/ST/STM32_USB_Device_Library/Core/Src/usbd_core.c **** /**
1121:Middlewares/ST/STM32_USB_Device_Library/Core/Src/usbd_core.c ****   * @brief  USBD_CoreGetEPAdd
1122:Middlewares/ST/STM32_USB_Device_Library/Core/Src/usbd_core.c ****   *         Get the endpoint address relative to a selected class
1123:Middlewares/ST/STM32_USB_Device_Library/Core/Src/usbd_core.c ****   * @param  pdev: device instance
1124:Middlewares/ST/STM32_USB_Device_Library/Core/Src/usbd_core.c ****   * @param  ep_dir: USBD_EP_IN or USBD_EP_OUT
1125:Middlewares/ST/STM32_USB_Device_Library/Core/Src/usbd_core.c ****   * @param  ep_type: USBD_EP_TYPE_CTRL, USBD_EP_TYPE_ISOC, USBD_EP_TYPE_BULK or USBD_EP_TYPE_INTR
1126:Middlewares/ST/STM32_USB_Device_Library/Core/Src/usbd_core.c ****   * @retval Address of the selected endpoint or 0xFFU if no endpoint found.
1127:Middlewares/ST/STM32_USB_Device_Library/Core/Src/usbd_core.c ****   */
1128:Middlewares/ST/STM32_USB_Device_Library/Core/Src/usbd_core.c **** uint8_t USBD_CoreGetEPAdd(USBD_HandleTypeDef *pdev, uint8_t ep_dir, uint8_t ep_type)
1129:Middlewares/ST/STM32_USB_Device_Library/Core/Src/usbd_core.c **** {
1130:Middlewares/ST/STM32_USB_Device_Library/Core/Src/usbd_core.c ****   uint8_t idx;
1131:Middlewares/ST/STM32_USB_Device_Library/Core/Src/usbd_core.c **** 
1132:Middlewares/ST/STM32_USB_Device_Library/Core/Src/usbd_core.c ****   /* Find the EP address in the selected class table */
ARM GAS  C:\Users\User\AppData\Local\Temp\cc8N179E.s 			page 50


1133:Middlewares/ST/STM32_USB_Device_Library/Core/Src/usbd_core.c ****   for (idx = 0; idx < pdev->tclasslist[pdev->classId].NumEps; idx++)
1134:Middlewares/ST/STM32_USB_Device_Library/Core/Src/usbd_core.c ****   {
1135:Middlewares/ST/STM32_USB_Device_Library/Core/Src/usbd_core.c ****     if (((pdev->tclasslist[pdev->classId].Eps[idx].add & USBD_EP_IN) == ep_dir) && \
1136:Middlewares/ST/STM32_USB_Device_Library/Core/Src/usbd_core.c ****         (pdev->tclasslist[pdev->classId].Eps[idx].type == ep_type) && \
1137:Middlewares/ST/STM32_USB_Device_Library/Core/Src/usbd_core.c ****         (pdev->tclasslist[pdev->classId].Eps[idx].is_used != 0U))
1138:Middlewares/ST/STM32_USB_Device_Library/Core/Src/usbd_core.c ****     {
1139:Middlewares/ST/STM32_USB_Device_Library/Core/Src/usbd_core.c ****       return (pdev->tclasslist[pdev->classId].Eps[idx].add);
1140:Middlewares/ST/STM32_USB_Device_Library/Core/Src/usbd_core.c ****     }
1141:Middlewares/ST/STM32_USB_Device_Library/Core/Src/usbd_core.c ****   }
1142:Middlewares/ST/STM32_USB_Device_Library/Core/Src/usbd_core.c **** 
1143:Middlewares/ST/STM32_USB_Device_Library/Core/Src/usbd_core.c ****   /* If reaching this point, then no endpoint was found */
1144:Middlewares/ST/STM32_USB_Device_Library/Core/Src/usbd_core.c ****   return 0xFFU;
1145:Middlewares/ST/STM32_USB_Device_Library/Core/Src/usbd_core.c **** }
1146:Middlewares/ST/STM32_USB_Device_Library/Core/Src/usbd_core.c **** #endif /* USE_USBD_COMPOSITE */
1147:Middlewares/ST/STM32_USB_Device_Library/Core/Src/usbd_core.c **** 
1148:Middlewares/ST/STM32_USB_Device_Library/Core/Src/usbd_core.c **** /**
1149:Middlewares/ST/STM32_USB_Device_Library/Core/Src/usbd_core.c ****   * @brief  USBD_GetEpDesc
1150:Middlewares/ST/STM32_USB_Device_Library/Core/Src/usbd_core.c ****   *         This function return the Endpoint descriptor
1151:Middlewares/ST/STM32_USB_Device_Library/Core/Src/usbd_core.c ****   * @param  pdev: device instance
1152:Middlewares/ST/STM32_USB_Device_Library/Core/Src/usbd_core.c ****   * @param  pConfDesc:  pointer to Bos descriptor
1153:Middlewares/ST/STM32_USB_Device_Library/Core/Src/usbd_core.c ****   * @param  EpAddr:  endpoint address
1154:Middlewares/ST/STM32_USB_Device_Library/Core/Src/usbd_core.c ****   * @retval pointer to video endpoint descriptor
1155:Middlewares/ST/STM32_USB_Device_Library/Core/Src/usbd_core.c ****   */
1156:Middlewares/ST/STM32_USB_Device_Library/Core/Src/usbd_core.c **** void *USBD_GetEpDesc(uint8_t *pConfDesc, uint8_t EpAddr)
1157:Middlewares/ST/STM32_USB_Device_Library/Core/Src/usbd_core.c **** {
1158:Middlewares/ST/STM32_USB_Device_Library/Core/Src/usbd_core.c ****   USBD_DescHeaderTypeDef *pdesc = (USBD_DescHeaderTypeDef *)(void *)pConfDesc;
1159:Middlewares/ST/STM32_USB_Device_Library/Core/Src/usbd_core.c ****   USBD_ConfigDescTypeDef *desc = (USBD_ConfigDescTypeDef *)(void *)pConfDesc;
1160:Middlewares/ST/STM32_USB_Device_Library/Core/Src/usbd_core.c ****   USBD_EpDescTypeDef *pEpDesc = NULL;
1161:Middlewares/ST/STM32_USB_Device_Library/Core/Src/usbd_core.c ****   uint16_t ptr;
1162:Middlewares/ST/STM32_USB_Device_Library/Core/Src/usbd_core.c **** 
1163:Middlewares/ST/STM32_USB_Device_Library/Core/Src/usbd_core.c ****   if (desc->wTotalLength > desc->bLength)
1164:Middlewares/ST/STM32_USB_Device_Library/Core/Src/usbd_core.c ****   {
1165:Middlewares/ST/STM32_USB_Device_Library/Core/Src/usbd_core.c ****     ptr = desc->bLength;
1166:Middlewares/ST/STM32_USB_Device_Library/Core/Src/usbd_core.c **** 
1167:Middlewares/ST/STM32_USB_Device_Library/Core/Src/usbd_core.c ****     while (ptr < desc->wTotalLength)
1168:Middlewares/ST/STM32_USB_Device_Library/Core/Src/usbd_core.c ****     {
1169:Middlewares/ST/STM32_USB_Device_Library/Core/Src/usbd_core.c ****       pdesc = USBD_GetNextDesc((uint8_t *)pdesc, &ptr);
1170:Middlewares/ST/STM32_USB_Device_Library/Core/Src/usbd_core.c **** 
1171:Middlewares/ST/STM32_USB_Device_Library/Core/Src/usbd_core.c ****       if (pdesc->bDescriptorType == USB_DESC_TYPE_ENDPOINT)
1172:Middlewares/ST/STM32_USB_Device_Library/Core/Src/usbd_core.c ****       {
1173:Middlewares/ST/STM32_USB_Device_Library/Core/Src/usbd_core.c ****         pEpDesc = (USBD_EpDescTypeDef *)(void *)pdesc;
1174:Middlewares/ST/STM32_USB_Device_Library/Core/Src/usbd_core.c **** 
1175:Middlewares/ST/STM32_USB_Device_Library/Core/Src/usbd_core.c ****         if (pEpDesc->bEndpointAddress == EpAddr)
1176:Middlewares/ST/STM32_USB_Device_Library/Core/Src/usbd_core.c ****         {
1177:Middlewares/ST/STM32_USB_Device_Library/Core/Src/usbd_core.c ****           break;
1178:Middlewares/ST/STM32_USB_Device_Library/Core/Src/usbd_core.c ****         }
1179:Middlewares/ST/STM32_USB_Device_Library/Core/Src/usbd_core.c ****         else
1180:Middlewares/ST/STM32_USB_Device_Library/Core/Src/usbd_core.c ****         {
1181:Middlewares/ST/STM32_USB_Device_Library/Core/Src/usbd_core.c ****           pEpDesc = NULL;
1182:Middlewares/ST/STM32_USB_Device_Library/Core/Src/usbd_core.c ****         }
1183:Middlewares/ST/STM32_USB_Device_Library/Core/Src/usbd_core.c ****       }
1184:Middlewares/ST/STM32_USB_Device_Library/Core/Src/usbd_core.c ****     }
1185:Middlewares/ST/STM32_USB_Device_Library/Core/Src/usbd_core.c ****   }
1186:Middlewares/ST/STM32_USB_Device_Library/Core/Src/usbd_core.c **** 
1187:Middlewares/ST/STM32_USB_Device_Library/Core/Src/usbd_core.c ****   return (void *)pEpDesc;
1188:Middlewares/ST/STM32_USB_Device_Library/Core/Src/usbd_core.c **** }
1189:Middlewares/ST/STM32_USB_Device_Library/Core/Src/usbd_core.c **** 
ARM GAS  C:\Users\User\AppData\Local\Temp\cc8N179E.s 			page 51


1190:Middlewares/ST/STM32_USB_Device_Library/Core/Src/usbd_core.c **** /**
1191:Middlewares/ST/STM32_USB_Device_Library/Core/Src/usbd_core.c ****   * @brief  USBD_GetNextDesc
1192:Middlewares/ST/STM32_USB_Device_Library/Core/Src/usbd_core.c ****   *         This function return the next descriptor header
1193:Middlewares/ST/STM32_USB_Device_Library/Core/Src/usbd_core.c ****   * @param  buf: Buffer where the descriptor is available
1194:Middlewares/ST/STM32_USB_Device_Library/Core/Src/usbd_core.c ****   * @param  ptr: data pointer inside the descriptor
1195:Middlewares/ST/STM32_USB_Device_Library/Core/Src/usbd_core.c ****   * @retval next header
1196:Middlewares/ST/STM32_USB_Device_Library/Core/Src/usbd_core.c ****   */
1197:Middlewares/ST/STM32_USB_Device_Library/Core/Src/usbd_core.c **** USBD_DescHeaderTypeDef *USBD_GetNextDesc(uint8_t *pbuf, uint16_t *ptr)
1198:Middlewares/ST/STM32_USB_Device_Library/Core/Src/usbd_core.c **** {
 1502              		.loc 1 1198 1 is_stmt 1 view -0
 1503              		.cfi_startproc
 1504              		@ args = 0, pretend = 0, frame = 0
 1505              		@ frame_needed = 0, uses_anonymous_args = 0
 1506              		@ link register save eliminated.
1199:Middlewares/ST/STM32_USB_Device_Library/Core/Src/usbd_core.c ****   USBD_DescHeaderTypeDef *pnext = (USBD_DescHeaderTypeDef *)(void *)pbuf;
 1507              		.loc 1 1199 3 view .LVU456
1200:Middlewares/ST/STM32_USB_Device_Library/Core/Src/usbd_core.c **** 
1201:Middlewares/ST/STM32_USB_Device_Library/Core/Src/usbd_core.c ****   *ptr += pnext->bLength;
 1508              		.loc 1 1201 3 view .LVU457
 1509 0000 0B88     		ldrh	r3, [r1]
 1510              		.loc 1 1201 16 is_stmt 0 view .LVU458
 1511 0002 0278     		ldrb	r2, [r0]	@ zero_extendqisi2
 1512              		.loc 1 1201 8 view .LVU459
 1513 0004 1344     		add	r3, r3, r2
 1514 0006 0B80     		strh	r3, [r1]	@ movhi
1202:Middlewares/ST/STM32_USB_Device_Library/Core/Src/usbd_core.c ****   pnext = (USBD_DescHeaderTypeDef *)(void *)(pbuf + pnext->bLength);
 1515              		.loc 1 1202 3 is_stmt 1 view .LVU460
 1516              		.loc 1 1202 58 is_stmt 0 view .LVU461
 1517 0008 0378     		ldrb	r3, [r0]	@ zero_extendqisi2
 1518              	.LVL145:
1203:Middlewares/ST/STM32_USB_Device_Library/Core/Src/usbd_core.c **** 
1204:Middlewares/ST/STM32_USB_Device_Library/Core/Src/usbd_core.c ****   return (pnext);
 1519              		.loc 1 1204 3 is_stmt 1 view .LVU462
1205:Middlewares/ST/STM32_USB_Device_Library/Core/Src/usbd_core.c **** }
 1520              		.loc 1 1205 1 is_stmt 0 view .LVU463
 1521 000a 1844     		add	r0, r0, r3
 1522              	.LVL146:
 1523              		.loc 1 1205 1 view .LVU464
 1524 000c 7047     		bx	lr
 1525              		.cfi_endproc
 1526              	.LFE157:
 1528              		.section	.text.USBD_GetEpDesc,"ax",%progbits
 1529              		.align	1
 1530              		.global	USBD_GetEpDesc
 1531              		.syntax unified
 1532              		.thumb
 1533              		.thumb_func
 1535              	USBD_GetEpDesc:
 1536              	.LVL147:
 1537              	.LFB156:
1157:Middlewares/ST/STM32_USB_Device_Library/Core/Src/usbd_core.c ****   USBD_DescHeaderTypeDef *pdesc = (USBD_DescHeaderTypeDef *)(void *)pConfDesc;
 1538              		.loc 1 1157 1 is_stmt 1 view -0
 1539              		.cfi_startproc
 1540              		@ args = 0, pretend = 0, frame = 8
 1541              		@ frame_needed = 0, uses_anonymous_args = 0
1158:Middlewares/ST/STM32_USB_Device_Library/Core/Src/usbd_core.c ****   USBD_ConfigDescTypeDef *desc = (USBD_ConfigDescTypeDef *)(void *)pConfDesc;
 1542              		.loc 1 1158 3 view .LVU466
ARM GAS  C:\Users\User\AppData\Local\Temp\cc8N179E.s 			page 52


1159:Middlewares/ST/STM32_USB_Device_Library/Core/Src/usbd_core.c ****   USBD_EpDescTypeDef *pEpDesc = NULL;
 1543              		.loc 1 1159 3 view .LVU467
1160:Middlewares/ST/STM32_USB_Device_Library/Core/Src/usbd_core.c ****   uint16_t ptr;
 1544              		.loc 1 1160 3 view .LVU468
1161:Middlewares/ST/STM32_USB_Device_Library/Core/Src/usbd_core.c **** 
 1545              		.loc 1 1161 3 view .LVU469
1163:Middlewares/ST/STM32_USB_Device_Library/Core/Src/usbd_core.c ****   {
 1546              		.loc 1 1163 3 view .LVU470
1163:Middlewares/ST/STM32_USB_Device_Library/Core/Src/usbd_core.c ****   {
 1547              		.loc 1 1163 11 is_stmt 0 view .LVU471
 1548 0000 4288     		ldrh	r2, [r0, #2]	@ unaligned
1163:Middlewares/ST/STM32_USB_Device_Library/Core/Src/usbd_core.c ****   {
 1549              		.loc 1 1163 32 view .LVU472
 1550 0002 0378     		ldrb	r3, [r0]	@ zero_extendqisi2
1163:Middlewares/ST/STM32_USB_Device_Library/Core/Src/usbd_core.c ****   {
 1551              		.loc 1 1163 6 view .LVU473
 1552 0004 9A42     		cmp	r2, r3
 1553 0006 18D9     		bls	.L110
1157:Middlewares/ST/STM32_USB_Device_Library/Core/Src/usbd_core.c ****   USBD_DescHeaderTypeDef *pdesc = (USBD_DescHeaderTypeDef *)(void *)pConfDesc;
 1554              		.loc 1 1157 1 view .LVU474
 1555 0008 30B5     		push	{r4, r5, lr}
 1556              		.cfi_def_cfa_offset 12
 1557              		.cfi_offset 4, -12
 1558              		.cfi_offset 5, -8
 1559              		.cfi_offset 14, -4
 1560 000a 83B0     		sub	sp, sp, #12
 1561              		.cfi_def_cfa_offset 24
 1562 000c 0446     		mov	r4, r0
 1563 000e 0D46     		mov	r5, r1
1165:Middlewares/ST/STM32_USB_Device_Library/Core/Src/usbd_core.c **** 
 1564              		.loc 1 1165 5 is_stmt 1 view .LVU475
1165:Middlewares/ST/STM32_USB_Device_Library/Core/Src/usbd_core.c **** 
 1565              		.loc 1 1165 9 is_stmt 0 view .LVU476
 1566 0010 ADF80630 		strh	r3, [sp, #6]	@ movhi
1167:Middlewares/ST/STM32_USB_Device_Library/Core/Src/usbd_core.c ****     {
 1567              		.loc 1 1167 5 is_stmt 1 view .LVU477
 1568              	.LVL148:
 1569              	.L108:
1167:Middlewares/ST/STM32_USB_Device_Library/Core/Src/usbd_core.c ****     {
 1570              		.loc 1 1167 16 view .LVU478
1167:Middlewares/ST/STM32_USB_Device_Library/Core/Src/usbd_core.c ****     {
 1571              		.loc 1 1167 22 is_stmt 0 view .LVU479
 1572 0014 6388     		ldrh	r3, [r4, #2]	@ unaligned
1167:Middlewares/ST/STM32_USB_Device_Library/Core/Src/usbd_core.c ****     {
 1573              		.loc 1 1167 16 view .LVU480
 1574 0016 BDF80620 		ldrh	r2, [sp, #6]
 1575 001a 9A42     		cmp	r2, r3
 1576 001c 0AD2     		bcs	.L115
1169:Middlewares/ST/STM32_USB_Device_Library/Core/Src/usbd_core.c **** 
 1577              		.loc 1 1169 7 is_stmt 1 view .LVU481
1169:Middlewares/ST/STM32_USB_Device_Library/Core/Src/usbd_core.c **** 
 1578              		.loc 1 1169 15 is_stmt 0 view .LVU482
 1579 001e 0DF10601 		add	r1, sp, #6
 1580 0022 FFF7FEFF 		bl	USBD_GetNextDesc
 1581              	.LVL149:
1171:Middlewares/ST/STM32_USB_Device_Library/Core/Src/usbd_core.c ****       {
 1582              		.loc 1 1171 7 is_stmt 1 view .LVU483
ARM GAS  C:\Users\User\AppData\Local\Temp\cc8N179E.s 			page 53


1171:Middlewares/ST/STM32_USB_Device_Library/Core/Src/usbd_core.c ****       {
 1583              		.loc 1 1171 16 is_stmt 0 view .LVU484
 1584 0026 4378     		ldrb	r3, [r0, #1]	@ zero_extendqisi2
1171:Middlewares/ST/STM32_USB_Device_Library/Core/Src/usbd_core.c ****       {
 1585              		.loc 1 1171 10 view .LVU485
 1586 0028 052B     		cmp	r3, #5
 1587 002a F3D1     		bne	.L108
1173:Middlewares/ST/STM32_USB_Device_Library/Core/Src/usbd_core.c **** 
 1588              		.loc 1 1173 9 is_stmt 1 view .LVU486
 1589              	.LVL150:
1175:Middlewares/ST/STM32_USB_Device_Library/Core/Src/usbd_core.c ****         {
 1590              		.loc 1 1175 9 view .LVU487
1175:Middlewares/ST/STM32_USB_Device_Library/Core/Src/usbd_core.c ****         {
 1591              		.loc 1 1175 20 is_stmt 0 view .LVU488
 1592 002c 8378     		ldrb	r3, [r0, #2]	@ zero_extendqisi2
1175:Middlewares/ST/STM32_USB_Device_Library/Core/Src/usbd_core.c ****         {
 1593              		.loc 1 1175 12 view .LVU489
 1594 002e AB42     		cmp	r3, r5
 1595 0030 F0D1     		bne	.L108
 1596 0032 00E0     		b	.L106
 1597              	.LVL151:
 1598              	.L115:
1175:Middlewares/ST/STM32_USB_Device_Library/Core/Src/usbd_core.c ****         {
 1599              		.loc 1 1175 12 view .LVU490
 1600 0034 0020     		movs	r0, #0
 1601              	.LVL152:
 1602              	.L106:
1188:Middlewares/ST/STM32_USB_Device_Library/Core/Src/usbd_core.c **** 
 1603              		.loc 1 1188 1 view .LVU491
 1604 0036 03B0     		add	sp, sp, #12
 1605              		.cfi_def_cfa_offset 12
 1606              		@ sp needed
 1607 0038 30BD     		pop	{r4, r5, pc}
 1608              	.LVL153:
 1609              	.L110:
 1610              		.cfi_def_cfa_offset 0
 1611              		.cfi_restore 4
 1612              		.cfi_restore 5
 1613              		.cfi_restore 14
1160:Middlewares/ST/STM32_USB_Device_Library/Core/Src/usbd_core.c ****   uint16_t ptr;
 1614              		.loc 1 1160 23 view .LVU492
 1615 003a 0020     		movs	r0, #0
 1616              	.LVL154:
1187:Middlewares/ST/STM32_USB_Device_Library/Core/Src/usbd_core.c **** }
 1617              		.loc 1 1187 3 is_stmt 1 view .LVU493
1188:Middlewares/ST/STM32_USB_Device_Library/Core/Src/usbd_core.c **** 
 1618              		.loc 1 1188 1 is_stmt 0 view .LVU494
 1619 003c 7047     		bx	lr
 1620              		.cfi_endproc
 1621              	.LFE156:
 1623              		.text
 1624              	.Letext0:
 1625              		.file 2 "C:/Users/User/AppData/Roaming/Code/User/globalStorage/bmd.stm32-for-vscode/@xpack-dev-too
 1626              		.file 3 "C:/Users/User/AppData/Roaming/Code/User/globalStorage/bmd.stm32-for-vscode/@xpack-dev-too
 1627              		.file 4 "Middlewares/ST/STM32_USB_Device_Library/Core/Inc/usbd_def.h"
 1628              		.file 5 "Middlewares/ST/STM32_USB_Device_Library/Core/Inc/usbd_core.h"
 1629              		.file 6 "Middlewares/ST/STM32_USB_Device_Library/Core/Inc/usbd_ioreq.h"
ARM GAS  C:\Users\User\AppData\Local\Temp\cc8N179E.s 			page 54


 1630              		.file 7 "Middlewares/ST/STM32_USB_Device_Library/Core/Inc/usbd_ctlreq.h"
ARM GAS  C:\Users\User\AppData\Local\Temp\cc8N179E.s 			page 55

